       0:	0c 94 21 01 	jmp	0x242	;  0x242
       4:	0c 94 49 01 	jmp	0x292	;  0x292
       8:	0c 94 49 01 	jmp	0x292	;  0x292
       c:	0c 94 49 01 	jmp	0x292	;  0x292
      10:	0c 94 49 01 	jmp	0x292	;  0x292
      14:	0c 94 49 01 	jmp	0x292	;  0x292
      18:	0c 94 49 01 	jmp	0x292	;  0x292
      1c:	0c 94 49 01 	jmp	0x292	;  0x292
      20:	0c 94 49 01 	jmp	0x292	;  0x292
      24:	0c 94 49 01 	jmp	0x292	;  0x292
      28:	0c 94 5a 0e 	jmp	0x1cb4	;  0x1cb4
      2c:	0c 94 c3 0e 	jmp	0x1d86	;  0x1d86
      30:	0c 94 49 01 	jmp	0x292	;  0x292
      34:	0c 94 49 01 	jmp	0x292	;  0x292
      38:	0c 94 49 01 	jmp	0x292	;  0x292
      3c:	0c 94 49 01 	jmp	0x292	;  0x292
      40:	0c 94 49 01 	jmp	0x292	;  0x292
      44:	0c 94 49 01 	jmp	0x292	;  0x292
      48:	0c 94 49 01 	jmp	0x292	;  0x292
      4c:	0c 94 49 01 	jmp	0x292	;  0x292
      50:	0c 94 49 01 	jmp	0x292	;  0x292
      54:	0c 94 49 01 	jmp	0x292	;  0x292
      58:	0c 94 49 01 	jmp	0x292	;  0x292
      5c:	0c 94 5c 03 	jmp	0x6b8	;  0x6b8
      60:	0c 94 49 01 	jmp	0x292	;  0x292
      64:	0c 94 49 01 	jmp	0x292	;  0x292
      68:	0c 94 49 01 	jmp	0x292	;  0x292
      6c:	0c 94 49 01 	jmp	0x292	;  0x292
      70:	0c 94 49 01 	jmp	0x292	;  0x292
      74:	0c 94 49 01 	jmp	0x292	;  0x292
      78:	0c 94 49 01 	jmp	0x292	;  0x292
      7c:	0c 94 49 01 	jmp	0x292	;  0x292
      80:	0c 94 12 11 	jmp	0x2224	;  0x2224
      84:	0c 94 49 01 	jmp	0x292	;  0x292
      88:	0c 94 49 01 	jmp	0x292	;  0x292
      8c:	0c 94 49 01 	jmp	0x292	;  0x292
      90:	0c 94 a6 03 	jmp	0x74c	;  0x74c
      94:	0c 94 49 01 	jmp	0x292	;  0x292
      98:	0c 94 49 01 	jmp	0x292	;  0x292
      9c:	0c 94 49 01 	jmp	0x292	;  0x292
      a0:	0c 94 49 01 	jmp	0x292	;  0x292
      a4:	0c 94 49 01 	jmp	0x292	;  0x292
      a8:	0c 94 49 01 	jmp	0x292	;  0x292
      ac:	41 02       	muls	r20, r17
      ae:	44 02       	muls	r20, r20
      b0:	33 02       	muls	r19, r19
      b2:	37 02       	muls	r19, r23
      b4:	3d 02       	muls	r19, r29
      b6:	65 02       	muls	r22, r21
      b8:	65 02       	muls	r22, r21
      ba:	65 02       	muls	r22, r21
      bc:	48 02       	muls	r20, r24
      be:	4c 02       	muls	r20, r28
      c0:	50 02       	muls	r21, r16
      c2:	56 02       	muls	r21, r22
      c4:	5a 02       	muls	r21, r26
      c6:	65 02       	muls	r22, r21
      c8:	60 02       	muls	r22, r16
      ca:	08 00       	.word	0x0008	; ????
      cc:	00 00       	nop
      ce:	be 92       	st	-X, r11
      d0:	24 49       	sbci	r18, 0x94	; 148
      d2:	12 3e       	cpi	r17, 0xE2	; 226
      d4:	ab aa       	std	Y+51, r10	; 0x33
      d6:	aa 2a       	or	r10, r26
      d8:	be cd       	rjmp	.-1156   	;  0xfffffc56
      da:	cc cc       	rjmp	.-1640   	;  0xfffffa74
      dc:	4c 3e       	cpi	r20, 0xEC	; 236
      de:	00 00       	nop
      e0:	00 80       	ld	r0, Z
      e2:	be ab       	std	Y+54, r27	; 0x36
      e4:	aa aa       	std	Y+50, r10	; 0x32
      e6:	aa 3e       	cpi	r26, 0xEA	; 234
      e8:	00 00       	nop
      ea:	00 00       	nop
      ec:	bf 00       	.word	0x00bf	; ????
      ee:	00 00       	nop
      f0:	80 3f       	cpi	r24, 0xF0	; 240
      f2:	00 00       	nop
      f4:	00 00       	nop
      f6:	00 08       	sbc	r0, r0
      f8:	41 78       	andi	r20, 0x81	; 129
      fa:	d3 bb       	out	0x13, r29	; 19
      fc:	43 87       	std	Z+11, r20	; 0x0b
      fe:	d1 13       	cpse	r29, r17
     100:	3d 19       	sub	r19, r13
     102:	0e 3c       	cpi	r16, 0xCE	; 206
     104:	c3 bd       	out	0x23, r28	; 35
     106:	42 82       	std	Z+2, r4	; 0x02
     108:	ad 2b       	or	r26, r29
     10a:	3e 68       	ori	r19, 0x8E	; 142
     10c:	ec 82       	std	Y+4, r14	; 0x04
     10e:	76 be       	out	0x36, r7	; 54
     110:	d9 8f       	std	Y+25, r29	; 0x19
     112:	e1 a9       	ldd	r30, Z+49	; 0x31
     114:	3e 4c       	sbci	r19, 0xCE	; 206
     116:	80 ef       	ldi	r24, 0xF0	; 240
     118:	ff be       	out	0x3f, r15	; 63
     11a:	01 c4       	rjmp	.+2050   	;  0x91e
     11c:	ff 7f       	andi	r31, 0xFF	; 255
     11e:	3f 00       	.word	0x003f	; ????
     120:	00 00       	nop
     122:	00 00       	nop
     124:	03 07       	cpc	r16, r19
     126:	06 05       	cpc	r16, r6
     128:	04 01       	movw	r0, r8
     12a:	00 08       	sbc	r0, r0
     12c:	0a 0b       	sbc	r16, r26
     12e:	0c 0d       	add	r16, r12
     130:	09 00       	.word	0x0009	; ????
     132:	00 00       	nop
     134:	00 24       	eor	r0, r0
     136:	00 27       	eor	r16, r16
     138:	00 2a       	or	r0, r16
     13a:	00 2d       	mov	r16, r0
     13c:	00 30       	cpi	r16, 0x00	; 0
     13e:	00 04       	cpc	r0, r0
     140:	08 02       	muls	r16, r24
     142:	01 10       	cpse	r0, r1
     144:	40 80       	ld	r4, Z
     146:	40 10       	cpse	r4, r0
     148:	20 40       	sbci	r18, 0x00	; 0
     14a:	80 40       	sbci	r24, 0x00	; 0
     14c:	80 08       	sbc	r8, r0
     14e:	02 04       	cpc	r0, r2
     150:	01 80       	ldd	r0, Z+1	; 0x01
     152:	40 20       	and	r4, r0
     154:	10 02       	muls	r17, r16
     156:	01 10       	cpse	r0, r1
     158:	80 10       	cpse	r8, r0
     15a:	20 40       	sbci	r18, 0x00	; 0
     15c:	40 20       	and	r4, r0
     15e:	00 00       	nop
     160:	00 00       	nop
     162:	25 00       	.word	0x0025	; ????
     164:	28 00       	.word	0x0028	; ????
     166:	2b 00       	.word	0x002b	; ????
     168:	2e 00       	.word	0x002e	; ????
     16a:	31 00       	.word	0x0031	; ????
     16c:	04 04       	cpc	r0, r4
     16e:	04 04       	cpc	r0, r4
     170:	04 03       	mulsu	r16, r20
     172:	04 05       	cpc	r16, r4
     174:	02 02       	muls	r16, r18
     176:	02 02       	muls	r16, r18
     178:	04 03       	mulsu	r16, r20
     17a:	02 02       	muls	r16, r18
     17c:	02 02       	muls	r16, r18
     17e:	06 06       	cpc	r0, r22
     180:	06 06       	cpc	r0, r22
     182:	06 06       	cpc	r0, r22
     184:	04 04       	cpc	r0, r4
     186:	02 02       	muls	r16, r18
     188:	02 04       	cpc	r0, r2
     18a:	04 00       	.word	0x0004	; ????
     18c:	00 00       	nop
     18e:	00 23       	and	r16, r16
     190:	00 26       	eor	r0, r16
     192:	00 29       	or	r16, r0
     194:	00 2c       	mov	r0, r0
     196:	00 2f       	mov	r16, r16
     198:	00 00       	nop
     19a:	00 00       	nop
     19c:	02 00       	.word	0x0002	; ????
     19e:	09 0f       	add	r16, r25
     1a0:	00 00       	nop
     1a2:	03 04       	cpc	r0, r3
     1a4:	01 00       	.word	0x0001	; ????
     1a6:	0c 00       	.word	0x000c	; ????
	...
     1b8:	08 0b       	sbc	r16, r24
     1ba:	00 02       	muls	r16, r16
     1bc:	02 02       	muls	r16, r18
     1be:	01 00       	.word	0x0001	; ????
     1c0:	09 04       	cpc	r0, r9
     1c2:	00 00       	nop
     1c4:	01 02       	muls	r16, r17
     1c6:	02 00       	.word	0x0002	; ????
     1c8:	00 05       	cpc	r16, r0
     1ca:	24 00       	.word	0x0024	; ????
     1cc:	10 01       	movw	r2, r0
     1ce:	05 24       	eor	r0, r5
     1d0:	01 01       	movw	r0, r2
     1d2:	01 04       	cpc	r0, r1
     1d4:	24 02       	muls	r18, r20
     1d6:	06 05       	cpc	r16, r6
     1d8:	24 06       	cpc	r2, r20
     1da:	00 01       	movw	r0, r0
     1dc:	07 05       	cpc	r16, r7
     1de:	81 03       	fmuls	r16, r17
     1e0:	10 00       	.word	0x0010	; ????
     1e2:	40 09       	sbc	r20, r0
     1e4:	04 01       	movw	r0, r8
     1e6:	00 02       	muls	r16, r16
     1e8:	0a 00       	.word	0x000a	; ????
     1ea:	00 00       	nop
     1ec:	07 05       	cpc	r16, r7
     1ee:	02 02       	muls	r16, r18
     1f0:	40 00       	.word	0x0040	; ????
     1f2:	00 07       	cpc	r16, r16
     1f4:	05 83       	std	Z+5, r16	; 0x05
     1f6:	02 40       	sbci	r16, 0x02	; 2
     1f8:	00 00       	nop
     1fa:	04 03       	mulsu	r16, r20
     1fc:	09 04       	cpc	r0, r9
     1fe:	41 64       	ori	r20, 0x41	; 65
     200:	61 66       	ori	r22, 0x61	; 97
     202:	72 75       	andi	r23, 0x52	; 82
     204:	69 74       	andi	r22, 0x49	; 73
     206:	00 43       	sbci	r16, 0x30	; 48
     208:	69 72       	andi	r22, 0x29	; 41
     20a:	63 75       	andi	r22, 0x53	; 83
     20c:	69 74       	andi	r22, 0x49	; 73
     20e:	20 50       	subi	r18, 0x00	; 0
     210:	6c 61       	ori	r22, 0x1C	; 28
     212:	79 67       	ori	r23, 0x79	; 121
     214:	72 6f       	ori	r23, 0xF2	; 242
     216:	75 6e       	ori	r23, 0xE5	; 229
     218:	64 00       	.word	0x0064	; ????
     21a:	12 01       	movw	r2, r4
     21c:	00 02       	muls	r16, r16
     21e:	00 00       	nop
     220:	00 40       	sbci	r16, 0x00	; 0
     222:	9a 23       	and	r25, r26
     224:	11 80       	ldd	r1, Z+1	; 0x01
     226:	00 01       	movw	r0, r0
     228:	01 02       	muls	r16, r17
     22a:	03 01       	movw	r0, r6
     22c:	12 01       	movw	r2, r4
     22e:	00 02       	muls	r16, r16
     230:	ef 02       	muls	r30, r31
     232:	01 40       	sbci	r16, 0x01	; 1
     234:	9a 23       	and	r25, r26
     236:	11 80       	ldd	r1, Z+1	; 0x01
     238:	00 01       	movw	r0, r0
     23a:	01 02       	muls	r16, r17
     23c:	03 01       	movw	r0, r6
     23e:	a5 18       	sub	r10, r5
     240:	a1 18       	sub	r10, r1
     242:	11 24       	eor	r1, r1
     244:	1f be       	out	0x3f, r1	; 63
     246:	cf ef       	ldi	r28, 0xFF	; 255
     248:	da e0       	ldi	r29, 0x0A	; 10
     24a:	de bf       	out	0x3e, r29	; 62
     24c:	cd bf       	out	0x3d, r28	; 61
     24e:	12 e0       	ldi	r17, 0x02	; 2
     250:	a0 e0       	ldi	r26, 0x00	; 0
     252:	b1 e0       	ldi	r27, 0x01	; 1
     254:	ec e9       	ldi	r30, 0x9C	; 156
     256:	fb e3       	ldi	r31, 0x3B	; 59
     258:	02 c0       	rjmp	.+4      	;  0x25e
     25a:	05 90       	lpm	r0, Z+
     25c:	0d 92       	st	X+, r0
     25e:	a0 39       	cpi	r26, 0x90	; 144
     260:	b1 07       	cpc	r27, r17
     262:	d9 f7       	brne	.-10     	;  0x25a
     264:	25 e0       	ldi	r18, 0x05	; 5
     266:	a0 e9       	ldi	r26, 0x90	; 144
     268:	b2 e0       	ldi	r27, 0x02	; 2
     26a:	01 c0       	rjmp	.+2      	;  0x26e
     26c:	1d 92       	st	X+, r1
     26e:	a4 3c       	cpi	r26, 0xC4	; 196
     270:	b2 07       	cpc	r27, r18
     272:	e1 f7       	brne	.-8      	;  0x26c
     274:	11 e0       	ldi	r17, 0x01	; 1
     276:	c0 e2       	ldi	r28, 0x20	; 32
     278:	d1 e0       	ldi	r29, 0x01	; 1
     27a:	04 c0       	rjmp	.+8      	;  0x284
     27c:	21 97       	sbiw	r28, 0x01	; 1
     27e:	fe 01       	movw	r30, r28
     280:	0e 94 9c 19 	call	0x3338	;  0x3338
     284:	cf 31       	cpi	r28, 0x1F	; 31
     286:	d1 07       	cpc	r29, r17
     288:	c9 f7       	brne	.-14     	;  0x27c
     28a:	0e 94 c9 13 	call	0x2792	;  0x2792
     28e:	0c 94 c1 1d 	jmp	0x3b82	;  0x3b82
     292:	0c 94 00 00 	jmp	0	;  0x0
     296:	0e 94 a6 1d 	call	0x3b4c	;  0x3b4c
     29a:	85 ed       	ldi	r24, 0xD5	; 213
     29c:	80 93 bc 00 	sts	0x00BC, r24	;  0x8000bc
     2a0:	80 91 bc 00 	lds	r24, 0x00BC	;  0x8000bc
     2a4:	84 fd       	sbrc	r24, 4
     2a6:	fc cf       	rjmp	.-8      	;  0x2a0
     2a8:	10 92 62 03 	sts	0x0362, r1	;  0x800362
     2ac:	08 95       	ret
     2ae:	08 95       	ret
     2b0:	e0 91 1b 03 	lds	r30, 0x031B	;  0x80031b
     2b4:	80 91 1a 03 	lds	r24, 0x031A	;  0x80031a
     2b8:	e8 17       	cp	r30, r24
     2ba:	30 f4       	brcc	.+12     	;  0x2c8
     2bc:	f0 e0       	ldi	r31, 0x00	; 0
     2be:	e4 5e       	subi	r30, 0xE4	; 228
     2c0:	fc 4f       	sbci	r31, 0xFC	; 252
     2c2:	80 81       	ld	r24, Z
     2c4:	90 e0       	ldi	r25, 0x00	; 0
     2c6:	08 95       	ret
     2c8:	8f ef       	ldi	r24, 0xFF	; 255
     2ca:	9f ef       	ldi	r25, 0xFF	; 255
     2cc:	08 95       	ret
     2ce:	90 91 1b 03 	lds	r25, 0x031B	;  0x80031b
     2d2:	80 91 1a 03 	lds	r24, 0x031A	;  0x80031a
     2d6:	98 17       	cp	r25, r24
     2d8:	50 f4       	brcc	.+20     	;  0x2ee
     2da:	e9 2f       	mov	r30, r25
     2dc:	f0 e0       	ldi	r31, 0x00	; 0
     2de:	e4 5e       	subi	r30, 0xE4	; 228
     2e0:	fc 4f       	sbci	r31, 0xFC	; 252
     2e2:	20 81       	ld	r18, Z
     2e4:	30 e0       	ldi	r19, 0x00	; 0
     2e6:	9f 5f       	subi	r25, 0xFF	; 255
     2e8:	90 93 1b 03 	sts	0x031B, r25	;  0x80031b
     2ec:	02 c0       	rjmp	.+4      	;  0x2f2
     2ee:	2f ef       	ldi	r18, 0xFF	; 255
     2f0:	3f ef       	ldi	r19, 0xFF	; 255
     2f2:	c9 01       	movw	r24, r18
     2f4:	08 95       	ret
     2f6:	80 91 1a 03 	lds	r24, 0x031A	;  0x80031a
     2fa:	90 e0       	ldi	r25, 0x00	; 0
     2fc:	20 91 1b 03 	lds	r18, 0x031B	;  0x80031b
     300:	82 1b       	sub	r24, r18
     302:	91 09       	sbc	r25, r1
     304:	08 95       	ret
     306:	cf 92       	push	r12
     308:	df 92       	push	r13
     30a:	ef 92       	push	r14
     30c:	ff 92       	push	r15
     30e:	0f 93       	push	r16
     310:	1f 93       	push	r17
     312:	cf 93       	push	r28
     314:	df 93       	push	r29
     316:	7c 01       	movw	r14, r24
     318:	8a 01       	movw	r16, r20
     31a:	80 91 63 03 	lds	r24, 0x0363	;  0x800363
     31e:	88 23       	and	r24, r24
     320:	89 f0       	breq	.+34     	;  0x344
     322:	eb 01       	movw	r28, r22
     324:	6b 01       	movw	r12, r22
     326:	c4 0e       	add	r12, r20
     328:	d5 1e       	adc	r13, r21
     32a:	cc 15       	cp	r28, r12
     32c:	dd 05       	cpc	r29, r13
     32e:	f1 f0       	breq	.+60     	;  0x36c
     330:	69 91       	ld	r22, Y+
     332:	d7 01       	movw	r26, r14
     334:	ed 91       	ld	r30, X+
     336:	fc 91       	ld	r31, X
     338:	01 90       	ld	r0, Z+
     33a:	f0 81       	ld	r31, Z
     33c:	e0 2d       	mov	r30, r0
     33e:	c7 01       	movw	r24, r14
     340:	09 95       	icall
     342:	f3 cf       	rjmp	.-26     	;  0x32a
     344:	84 2f       	mov	r24, r20
     346:	41 32       	cpi	r20, 0x21	; 33
     348:	88 f4       	brcc	.+34     	;  0x36c
     34a:	90 91 62 03 	lds	r25, 0x0362	;  0x800362
     34e:	94 30       	cpi	r25, 0x04	; 4
     350:	69 f4       	brne	.+26     	;  0x36c
     352:	40 93 d7 02 	sts	0x02D7, r20	;  0x8002d7
     356:	fb 01       	movw	r30, r22
     358:	25 eb       	ldi	r18, 0xB5	; 181
     35a:	32 e0       	ldi	r19, 0x02	; 2
     35c:	d9 01       	movw	r26, r18
     35e:	9a 2f       	mov	r25, r26
     360:	92 1b       	sub	r25, r18
     362:	98 17       	cp	r25, r24
     364:	18 f4       	brcc	.+6      	;  0x36c
     366:	91 91       	ld	r25, Z+
     368:	9d 93       	st	X+, r25
     36a:	f9 cf       	rjmp	.-14     	;  0x35e
     36c:	c8 01       	movw	r24, r16
     36e:	df 91       	pop	r29
     370:	cf 91       	pop	r28
     372:	1f 91       	pop	r17
     374:	0f 91       	pop	r16
     376:	ff 90       	pop	r15
     378:	ef 90       	pop	r14
     37a:	df 90       	pop	r13
     37c:	cf 90       	pop	r12
     37e:	08 95       	ret
     380:	20 91 63 03 	lds	r18, 0x0363	;  0x800363
     384:	22 23       	and	r18, r18
     386:	c9 f0       	breq	.+50     	;  0x3ba
     388:	20 91 86 03 	lds	r18, 0x0386	;  0x800386
     38c:	20 32       	cpi	r18, 0x20	; 32
     38e:	40 f0       	brcs	.+16     	;  0x3a0
     390:	21 e0       	ldi	r18, 0x01	; 1
     392:	30 e0       	ldi	r19, 0x00	; 0
     394:	fc 01       	movw	r30, r24
     396:	33 83       	std	Z+3, r19	; 0x03
     398:	22 83       	std	Z+2, r18	; 0x02
     39a:	80 e0       	ldi	r24, 0x00	; 0
     39c:	90 e0       	ldi	r25, 0x00	; 0
     39e:	08 95       	ret
     3a0:	80 91 64 03 	lds	r24, 0x0364	;  0x800364
     3a4:	e8 2f       	mov	r30, r24
     3a6:	f0 e0       	ldi	r31, 0x00	; 0
     3a8:	eb 59       	subi	r30, 0x9B	; 155
     3aa:	fc 4f       	sbci	r31, 0xFC	; 252
     3ac:	60 83       	st	Z, r22
     3ae:	8f 5f       	subi	r24, 0xFF	; 255
     3b0:	80 93 64 03 	sts	0x0364, r24	;  0x800364
     3b4:	80 93 86 03 	sts	0x0386, r24	;  0x800386
     3b8:	09 c0       	rjmp	.+18     	;  0x3cc
     3ba:	80 91 62 03 	lds	r24, 0x0362	;  0x800362
     3be:	84 30       	cpi	r24, 0x04	; 4
     3c0:	29 f4       	brne	.+10     	;  0x3cc
     3c2:	81 e0       	ldi	r24, 0x01	; 1
     3c4:	80 93 d7 02 	sts	0x02D7, r24	;  0x8002d7
     3c8:	60 93 b5 02 	sts	0x02B5, r22	;  0x8002b5
     3cc:	81 e0       	ldi	r24, 0x01	; 1
     3ce:	90 e0       	ldi	r25, 0x00	; 0
     3d0:	08 95       	ret
     3d2:	08 95       	ret
     3d4:	0c 94 0e 1d 	jmp	0x3a1c	;  0x3a1c
     3d8:	0f 93       	push	r16
     3da:	1f 93       	push	r17
     3dc:	cf 93       	push	r28
     3de:	df 93       	push	r29
     3e0:	8c 01       	movw	r16, r24
     3e2:	eb 01       	movw	r28, r22
     3e4:	88 e2       	ldi	r24, 0x28	; 40
     3e6:	fb 01       	movw	r30, r22
     3e8:	11 92       	st	Z+, r1
     3ea:	8a 95       	dec	r24
     3ec:	e9 f7       	brne	.-6      	;  0x3e8
     3ee:	4b e0       	ldi	r20, 0x0B	; 11
     3f0:	50 e0       	ldi	r21, 0x00	; 0
     3f2:	67 e7       	ldi	r22, 0x77	; 119
     3f4:	72 e0       	ldi	r23, 0x02	; 2
     3f6:	ce 01       	movw	r24, r28
     3f8:	0e 94 b2 1d 	call	0x3b64	;  0x3b64
     3fc:	1b 86       	std	Y+11, r1	; 0x0b
     3fe:	41 e0       	ldi	r20, 0x01	; 1
     400:	50 e0       	ldi	r21, 0x00	; 0
     402:	60 e0       	ldi	r22, 0x00	; 0
     404:	70 e0       	ldi	r23, 0x00	; 0
     406:	4c 87       	std	Y+12, r20	; 0x0c
     408:	5d 87       	std	Y+13, r21	; 0x0d
     40a:	6e 87       	std	Y+14, r22	; 0x0e
     40c:	7f 87       	std	Y+15, r23	; 0x0f
     40e:	f8 01       	movw	r30, r16
     410:	85 89       	ldd	r24, Z+21	; 0x15
     412:	96 89       	ldd	r25, Z+22	; 0x16
     414:	a7 89       	ldd	r26, Z+23	; 0x17
     416:	b0 8d       	ldd	r27, Z+24	; 0x18
     418:	88 8b       	std	Y+16, r24	; 0x10
     41a:	99 8b       	std	Y+17, r25	; 0x11
     41c:	aa 8b       	std	Y+18, r26	; 0x12
     41e:	bb 8b       	std	Y+19, r27	; 0x13
     420:	4c 8b       	std	Y+20, r20	; 0x14
     422:	5d 8b       	std	Y+21, r21	; 0x15
     424:	6e 8b       	std	Y+22, r22	; 0x16
     426:	7f 8b       	std	Y+23, r23	; 0x17
     428:	1c a2       	std	Y+36, r1	; 0x24
     42a:	1d a2       	std	Y+37, r1	; 0x25
     42c:	1e a2       	std	Y+38, r1	; 0x26
     42e:	1f a2       	std	Y+39, r1	; 0x27
     430:	18 8e       	std	Y+24, r1	; 0x18
     432:	19 8e       	std	Y+25, r1	; 0x19
     434:	1a 8e       	std	Y+26, r1	; 0x1a
     436:	1b 8e       	std	Y+27, r1	; 0x1b
     438:	1c 8e       	std	Y+28, r1	; 0x1c
     43a:	1d 8e       	std	Y+29, r1	; 0x1d
     43c:	1e 8e       	std	Y+30, r1	; 0x1e
     43e:	1f 8e       	std	Y+31, r1	; 0x1f
     440:	18 a2       	std	Y+32, r1	; 0x20
     442:	19 a2       	std	Y+33, r1	; 0x21
     444:	1a a2       	std	Y+34, r1	; 0x22
     446:	1b a2       	std	Y+35, r1	; 0x23
     448:	df 91       	pop	r29
     44a:	cf 91       	pop	r28
     44c:	1f 91       	pop	r17
     44e:	0f 91       	pop	r16
     450:	08 95       	ret
     452:	90 e0       	ldi	r25, 0x00	; 0
     454:	fc 01       	movw	r30, r24
     456:	31 97       	sbiw	r30, 0x01	; 1
     458:	ef 30       	cpi	r30, 0x0F	; 15
     45a:	f1 05       	cpc	r31, r1
     45c:	b0 f5       	brcc	.+108    	;  0x4ca
     45e:	ea 5a       	subi	r30, 0xAA	; 170
     460:	ff 4f       	sbci	r31, 0xFF	; 255
     462:	0c 94 9c 19 	jmp	0x3338	;  0x3338
     466:	80 91 80 00 	lds	r24, 0x0080	;  0x800080
     46a:	8f 77       	andi	r24, 0x7F	; 127
     46c:	03 c0       	rjmp	.+6      	;  0x474
     46e:	80 91 80 00 	lds	r24, 0x0080	;  0x800080
     472:	8f 7d       	andi	r24, 0xDF	; 223
     474:	80 93 80 00 	sts	0x0080, r24	;  0x800080
     478:	08 95       	ret
     47a:	80 91 80 00 	lds	r24, 0x0080	;  0x800080
     47e:	87 7f       	andi	r24, 0xF7	; 247
     480:	f9 cf       	rjmp	.-14     	;  0x474
     482:	84 b5       	in	r24, 0x24	; 36
     484:	8f 77       	andi	r24, 0x7F	; 127
     486:	02 c0       	rjmp	.+4      	;  0x48c
     488:	84 b5       	in	r24, 0x24	; 36
     48a:	8f 7d       	andi	r24, 0xDF	; 223
     48c:	84 bd       	out	0x24, r24	; 36
     48e:	08 95       	ret
     490:	80 91 90 00 	lds	r24, 0x0090	;  0x800090
     494:	8f 77       	andi	r24, 0x7F	; 127
     496:	07 c0       	rjmp	.+14     	;  0x4a6
     498:	80 91 90 00 	lds	r24, 0x0090	;  0x800090
     49c:	8f 7d       	andi	r24, 0xDF	; 223
     49e:	03 c0       	rjmp	.+6      	;  0x4a6
     4a0:	80 91 90 00 	lds	r24, 0x0090	;  0x800090
     4a4:	87 7f       	andi	r24, 0xF7	; 247
     4a6:	80 93 90 00 	sts	0x0090, r24	;  0x800090
     4aa:	08 95       	ret
     4ac:	80 91 c0 00 	lds	r24, 0x00C0	;  0x8000c0
     4b0:	8f 77       	andi	r24, 0x7F	; 127
     4b2:	03 c0       	rjmp	.+6      	;  0x4ba
     4b4:	80 91 c0 00 	lds	r24, 0x00C0	;  0x8000c0
     4b8:	8f 7d       	andi	r24, 0xDF	; 223
     4ba:	80 93 c0 00 	sts	0x00C0, r24	;  0x8000c0
     4be:	08 95       	ret
     4c0:	80 91 c2 00 	lds	r24, 0x00C2	;  0x8000c2
     4c4:	87 7f       	andi	r24, 0xF7	; 247
     4c6:	80 93 c2 00 	sts	0x00C2, r24	;  0x8000c2
     4ca:	08 95       	ret
     4cc:	1f 93       	push	r17
     4ce:	cf 93       	push	r28
     4d0:	df 93       	push	r29
     4d2:	28 2f       	mov	r18, r24
     4d4:	30 e0       	ldi	r19, 0x00	; 0
     4d6:	f9 01       	movw	r30, r18
     4d8:	e7 56       	subi	r30, 0x67	; 103
     4da:	fe 4f       	sbci	r31, 0xFE	; 254
     4dc:	84 91       	lpm	r24, Z
     4de:	f9 01       	movw	r30, r18
     4e0:	e1 5c       	subi	r30, 0xC1	; 193
     4e2:	fe 4f       	sbci	r31, 0xFE	; 254
     4e4:	d4 91       	lpm	r29, Z
     4e6:	f9 01       	movw	r30, r18
     4e8:	e4 59       	subi	r30, 0x94	; 148
     4ea:	fe 4f       	sbci	r31, 0xFE	; 254
     4ec:	c4 91       	lpm	r28, Z
     4ee:	cc 23       	and	r28, r28
     4f0:	c9 f0       	breq	.+50     	;  0x524
     4f2:	16 2f       	mov	r17, r22
     4f4:	81 11       	cpse	r24, r1
     4f6:	0e 94 29 02 	call	0x452	;  0x452
     4fa:	ec 2f       	mov	r30, r28
     4fc:	f0 e0       	ldi	r31, 0x00	; 0
     4fe:	ee 0f       	add	r30, r30
     500:	ff 1f       	adc	r31, r31
     502:	e2 5a       	subi	r30, 0xA2	; 162
     504:	fe 4f       	sbci	r31, 0xFE	; 254
     506:	a5 91       	lpm	r26, Z+
     508:	b4 91       	lpm	r27, Z
     50a:	8f b7       	in	r24, 0x3f	; 63
     50c:	f8 94       	cli
     50e:	11 11       	cpse	r17, r1
     510:	05 c0       	rjmp	.+10     	;  0x51c
     512:	9c 91       	ld	r25, X
     514:	ed 2f       	mov	r30, r29
     516:	e0 95       	com	r30
     518:	e9 23       	and	r30, r25
     51a:	02 c0       	rjmp	.+4      	;  0x520
     51c:	ec 91       	ld	r30, X
     51e:	ed 2b       	or	r30, r29
     520:	ec 93       	st	X, r30
     522:	8f bf       	out	0x3f, r24	; 63
     524:	df 91       	pop	r29
     526:	cf 91       	pop	r28
     528:	1f 91       	pop	r17
     52a:	08 95       	ret
     52c:	cf 93       	push	r28
     52e:	df 93       	push	r29
     530:	90 e0       	ldi	r25, 0x00	; 0
     532:	fc 01       	movw	r30, r24
     534:	e1 5c       	subi	r30, 0xC1	; 193
     536:	fe 4f       	sbci	r31, 0xFE	; 254
     538:	24 91       	lpm	r18, Z
     53a:	fc 01       	movw	r30, r24
     53c:	e4 59       	subi	r30, 0x94	; 148
     53e:	fe 4f       	sbci	r31, 0xFE	; 254
     540:	84 91       	lpm	r24, Z
     542:	88 23       	and	r24, r24
     544:	61 f1       	breq	.+88     	;  0x59e
     546:	90 e0       	ldi	r25, 0x00	; 0
     548:	88 0f       	add	r24, r24
     54a:	99 1f       	adc	r25, r25
     54c:	fc 01       	movw	r30, r24
     54e:	ef 5c       	subi	r30, 0xCF	; 207
     550:	fe 4f       	sbci	r31, 0xFE	; 254
     552:	c5 91       	lpm	r28, Z+
     554:	d4 91       	lpm	r29, Z
     556:	fc 01       	movw	r30, r24
     558:	e2 5a       	subi	r30, 0xA2	; 162
     55a:	fe 4f       	sbci	r31, 0xFE	; 254
     55c:	a5 91       	lpm	r26, Z+
     55e:	b4 91       	lpm	r27, Z
     560:	61 11       	cpse	r22, r1
     562:	09 c0       	rjmp	.+18     	;  0x576
     564:	9f b7       	in	r25, 0x3f	; 63
     566:	f8 94       	cli
     568:	88 81       	ld	r24, Y
     56a:	20 95       	com	r18
     56c:	82 23       	and	r24, r18
     56e:	88 83       	st	Y, r24
     570:	ec 91       	ld	r30, X
     572:	2e 23       	and	r18, r30
     574:	0b c0       	rjmp	.+22     	;  0x58c
     576:	62 30       	cpi	r22, 0x02	; 2
     578:	61 f4       	brne	.+24     	;  0x592
     57a:	9f b7       	in	r25, 0x3f	; 63
     57c:	f8 94       	cli
     57e:	38 81       	ld	r19, Y
     580:	82 2f       	mov	r24, r18
     582:	80 95       	com	r24
     584:	83 23       	and	r24, r19
     586:	88 83       	st	Y, r24
     588:	ec 91       	ld	r30, X
     58a:	2e 2b       	or	r18, r30
     58c:	2c 93       	st	X, r18
     58e:	9f bf       	out	0x3f, r25	; 63
     590:	06 c0       	rjmp	.+12     	;  0x59e
     592:	8f b7       	in	r24, 0x3f	; 63
     594:	f8 94       	cli
     596:	e8 81       	ld	r30, Y
     598:	2e 2b       	or	r18, r30
     59a:	28 83       	st	Y, r18
     59c:	8f bf       	out	0x3f, r24	; 63
     59e:	df 91       	pop	r29
     5a0:	cf 91       	pop	r28
     5a2:	08 95       	ret
     5a4:	82 31       	cpi	r24, 0x12	; 18
     5a6:	08 f0       	brcs	.+2      	;  0x5aa
     5a8:	82 51       	subi	r24, 0x12	; 18
     5aa:	e8 2f       	mov	r30, r24
     5ac:	f0 e0       	ldi	r31, 0x00	; 0
     5ae:	eb 5d       	subi	r30, 0xDB	; 219
     5b0:	fe 4f       	sbci	r31, 0xFE	; 254
     5b2:	e4 91       	lpm	r30, Z
     5b4:	80 91 7b 00 	lds	r24, 0x007B	;  0x80007b
     5b8:	e3 fb       	bst	r30, 3
     5ba:	22 27       	eor	r18, r18
     5bc:	20 f9       	bld	r18, 0
     5be:	30 e0       	ldi	r19, 0x00	; 0
     5c0:	95 e0       	ldi	r25, 0x05	; 5
     5c2:	22 0f       	add	r18, r18
     5c4:	33 1f       	adc	r19, r19
     5c6:	9a 95       	dec	r25
     5c8:	e1 f7       	brne	.-8      	;  0x5c2
     5ca:	8f 7d       	andi	r24, 0xDF	; 223
     5cc:	28 2b       	or	r18, r24
     5ce:	20 93 7b 00 	sts	0x007B, r18	;  0x80007b
     5d2:	e7 70       	andi	r30, 0x07	; 7
     5d4:	e0 64       	ori	r30, 0x40	; 64
     5d6:	e0 93 7c 00 	sts	0x007C, r30	;  0x80007c
     5da:	80 91 7a 00 	lds	r24, 0x007A	;  0x80007a
     5de:	80 64       	ori	r24, 0x40	; 64
     5e0:	80 93 7a 00 	sts	0x007A, r24	;  0x80007a
     5e4:	80 91 7a 00 	lds	r24, 0x007A	;  0x80007a
     5e8:	86 fd       	sbrc	r24, 6
     5ea:	fc cf       	rjmp	.-8      	;  0x5e4
     5ec:	80 91 78 00 	lds	r24, 0x0078	;  0x800078
     5f0:	20 91 79 00 	lds	r18, 0x0079	;  0x800079
     5f4:	90 e0       	ldi	r25, 0x00	; 0
     5f6:	92 2b       	or	r25, r18
     5f8:	08 95       	ret
     5fa:	3f b7       	in	r19, 0x3f	; 63
     5fc:	f8 94       	cli
     5fe:	80 91 fd 02 	lds	r24, 0x02FD	;  0x8002fd
     602:	90 91 fe 02 	lds	r25, 0x02FE	;  0x8002fe
     606:	a0 91 ff 02 	lds	r26, 0x02FF	;  0x8002ff
     60a:	b0 91 00 03 	lds	r27, 0x0300	;  0x800300
     60e:	26 b5       	in	r18, 0x26	; 38
     610:	a8 9b       	sbis	0x15, 0	; 21
     612:	05 c0       	rjmp	.+10     	;  0x61e
     614:	2f 3f       	cpi	r18, 0xFF	; 255
     616:	19 f0       	breq	.+6      	;  0x61e
     618:	01 96       	adiw	r24, 0x01	; 1
     61a:	a1 1d       	adc	r26, r1
     61c:	b1 1d       	adc	r27, r1
     61e:	3f bf       	out	0x3f, r19	; 63
     620:	ba 2f       	mov	r27, r26
     622:	a9 2f       	mov	r26, r25
     624:	98 2f       	mov	r25, r24
     626:	88 27       	eor	r24, r24
     628:	82 0f       	add	r24, r18
     62a:	91 1d       	adc	r25, r1
     62c:	a1 1d       	adc	r26, r1
     62e:	b1 1d       	adc	r27, r1
     630:	bc 01       	movw	r22, r24
     632:	cd 01       	movw	r24, r26
     634:	43 e0       	ldi	r20, 0x03	; 3
     636:	66 0f       	add	r22, r22
     638:	77 1f       	adc	r23, r23
     63a:	88 1f       	adc	r24, r24
     63c:	99 1f       	adc	r25, r25
     63e:	4a 95       	dec	r20
     640:	d1 f7       	brne	.-12     	;  0x636
     642:	08 95       	ret
     644:	8f 92       	push	r8
     646:	9f 92       	push	r9
     648:	af 92       	push	r10
     64a:	bf 92       	push	r11
     64c:	cf 92       	push	r12
     64e:	df 92       	push	r13
     650:	ef 92       	push	r14
     652:	ff 92       	push	r15
     654:	6b 01       	movw	r12, r22
     656:	7c 01       	movw	r14, r24
     658:	0e 94 fd 02 	call	0x5fa	;  0x5fa
     65c:	4b 01       	movw	r8, r22
     65e:	5c 01       	movw	r10, r24
     660:	c1 14       	cp	r12, r1
     662:	d1 04       	cpc	r13, r1
     664:	e1 04       	cpc	r14, r1
     666:	f1 04       	cpc	r15, r1
     668:	f1 f0       	breq	.+60     	;  0x6a6
     66a:	0e 94 fd 02 	call	0x5fa	;  0x5fa
     66e:	dc 01       	movw	r26, r24
     670:	cb 01       	movw	r24, r22
     672:	88 19       	sub	r24, r8
     674:	99 09       	sbc	r25, r9
     676:	aa 09       	sbc	r26, r10
     678:	bb 09       	sbc	r27, r11
     67a:	88 3e       	cpi	r24, 0xE8	; 232
     67c:	93 40       	sbci	r25, 0x03	; 3
     67e:	a1 05       	cpc	r26, r1
     680:	b1 05       	cpc	r27, r1
     682:	70 f3       	brcs	.-36     	;  0x660
     684:	21 e0       	ldi	r18, 0x01	; 1
     686:	c2 1a       	sub	r12, r18
     688:	d1 08       	sbc	r13, r1
     68a:	e1 08       	sbc	r14, r1
     68c:	f1 08       	sbc	r15, r1
     68e:	88 ee       	ldi	r24, 0xE8	; 232
     690:	88 0e       	add	r8, r24
     692:	83 e0       	ldi	r24, 0x03	; 3
     694:	98 1e       	adc	r9, r24
     696:	a1 1c       	adc	r10, r1
     698:	b1 1c       	adc	r11, r1
     69a:	c1 14       	cp	r12, r1
     69c:	d1 04       	cpc	r13, r1
     69e:	e1 04       	cpc	r14, r1
     6a0:	f1 04       	cpc	r15, r1
     6a2:	19 f7       	brne	.-58     	;  0x66a
     6a4:	dd cf       	rjmp	.-70     	;  0x660
     6a6:	ff 90       	pop	r15
     6a8:	ef 90       	pop	r14
     6aa:	df 90       	pop	r13
     6ac:	cf 90       	pop	r12
     6ae:	bf 90       	pop	r11
     6b0:	af 90       	pop	r10
     6b2:	9f 90       	pop	r9
     6b4:	8f 90       	pop	r8
     6b6:	08 95       	ret
     6b8:	1f 92       	push	r1
     6ba:	0f 92       	push	r0
     6bc:	0f b6       	in	r0, 0x3f	; 63
     6be:	0f 92       	push	r0
     6c0:	11 24       	eor	r1, r1
     6c2:	2f 93       	push	r18
     6c4:	3f 93       	push	r19
     6c6:	8f 93       	push	r24
     6c8:	9f 93       	push	r25
     6ca:	af 93       	push	r26
     6cc:	bf 93       	push	r27
     6ce:	80 91 03 03 	lds	r24, 0x0303	;  0x800303
     6d2:	90 91 04 03 	lds	r25, 0x0304	;  0x800304
     6d6:	a0 91 05 03 	lds	r26, 0x0305	;  0x800305
     6da:	b0 91 06 03 	lds	r27, 0x0306	;  0x800306
     6de:	30 91 fc 02 	lds	r19, 0x02FC	;  0x8002fc
     6e2:	26 e0       	ldi	r18, 0x06	; 6
     6e4:	23 0f       	add	r18, r19
     6e6:	2d 37       	cpi	r18, 0x7D	; 125
     6e8:	20 f4       	brcc	.+8      	;  0x6f2
     6ea:	02 96       	adiw	r24, 0x02	; 2
     6ec:	a1 1d       	adc	r26, r1
     6ee:	b1 1d       	adc	r27, r1
     6f0:	05 c0       	rjmp	.+10     	;  0x6fc
     6f2:	29 e8       	ldi	r18, 0x89	; 137
     6f4:	23 0f       	add	r18, r19
     6f6:	03 96       	adiw	r24, 0x03	; 3
     6f8:	a1 1d       	adc	r26, r1
     6fa:	b1 1d       	adc	r27, r1
     6fc:	20 93 fc 02 	sts	0x02FC, r18	;  0x8002fc
     700:	80 93 03 03 	sts	0x0303, r24	;  0x800303
     704:	90 93 04 03 	sts	0x0304, r25	;  0x800304
     708:	a0 93 05 03 	sts	0x0305, r26	;  0x800305
     70c:	b0 93 06 03 	sts	0x0306, r27	;  0x800306
     710:	80 91 fd 02 	lds	r24, 0x02FD	;  0x8002fd
     714:	90 91 fe 02 	lds	r25, 0x02FE	;  0x8002fe
     718:	a0 91 ff 02 	lds	r26, 0x02FF	;  0x8002ff
     71c:	b0 91 00 03 	lds	r27, 0x0300	;  0x800300
     720:	01 96       	adiw	r24, 0x01	; 1
     722:	a1 1d       	adc	r26, r1
     724:	b1 1d       	adc	r27, r1
     726:	80 93 fd 02 	sts	0x02FD, r24	;  0x8002fd
     72a:	90 93 fe 02 	sts	0x02FE, r25	;  0x8002fe
     72e:	a0 93 ff 02 	sts	0x02FF, r26	;  0x8002ff
     732:	b0 93 00 03 	sts	0x0300, r27	;  0x800300
     736:	bf 91       	pop	r27
     738:	af 91       	pop	r26
     73a:	9f 91       	pop	r25
     73c:	8f 91       	pop	r24
     73e:	3f 91       	pop	r19
     740:	2f 91       	pop	r18
     742:	0f 90       	pop	r0
     744:	0f be       	out	0x3f, r0	; 63
     746:	0f 90       	pop	r0
     748:	1f 90       	pop	r1
     74a:	18 95       	reti
     74c:	1f 92       	push	r1
     74e:	0f 92       	push	r0
     750:	0f b6       	in	r0, 0x3f	; 63
     752:	0f 92       	push	r0
     754:	11 24       	eor	r1, r1
     756:	2f 93       	push	r18
     758:	3f 93       	push	r19
     75a:	4f 93       	push	r20
     75c:	5f 93       	push	r21
     75e:	6f 93       	push	r22
     760:	7f 93       	push	r23
     762:	8f 93       	push	r24
     764:	9f 93       	push	r25
     766:	af 93       	push	r26
     768:	bf 93       	push	r27
     76a:	ef 93       	push	r30
     76c:	ff 93       	push	r31
     76e:	80 91 b9 00 	lds	r24, 0x00B9	;  0x8000b9
     772:	88 7f       	andi	r24, 0xF8	; 248
     774:	80 36       	cpi	r24, 0x60	; 96
     776:	09 f4       	brne	.+2      	;  0x77a
     778:	9c c0       	rjmp	.+312    	;  0x8b2
     77a:	68 f5       	brcc	.+90     	;  0x7d6
     77c:	88 32       	cpi	r24, 0x28	; 40
     77e:	09 f4       	brne	.+2      	;  0x782
     780:	5b c0       	rjmp	.+182    	;  0x838
     782:	90 f4       	brcc	.+36     	;  0x7a8
     784:	80 31       	cpi	r24, 0x10	; 16
     786:	09 f4       	brne	.+2      	;  0x78a
     788:	54 c0       	rjmp	.+168    	;  0x832
     78a:	38 f4       	brcc	.+14     	;  0x79a
     78c:	88 23       	and	r24, r24
     78e:	09 f4       	brne	.+2      	;  0x792
     790:	f3 c0       	rjmp	.+486    	;  0x978
     792:	88 30       	cpi	r24, 0x08	; 8
     794:	09 f4       	brne	.+2      	;  0x798
     796:	4d c0       	rjmp	.+154    	;  0x832
     798:	f3 c0       	rjmp	.+486    	;  0x980
     79a:	88 31       	cpi	r24, 0x18	; 24
     79c:	09 f4       	brne	.+2      	;  0x7a0
     79e:	4c c0       	rjmp	.+152    	;  0x838
     7a0:	80 32       	cpi	r24, 0x20	; 32
     7a2:	09 f4       	brne	.+2      	;  0x7a6
     7a4:	5d c0       	rjmp	.+186    	;  0x860
     7a6:	ec c0       	rjmp	.+472    	;  0x980
     7a8:	80 34       	cpi	r24, 0x40	; 64
     7aa:	09 f4       	brne	.+2      	;  0x7ae
     7ac:	68 c0       	rjmp	.+208    	;  0x87e
     7ae:	48 f4       	brcc	.+18     	;  0x7c2
     7b0:	80 33       	cpi	r24, 0x30	; 48
     7b2:	09 f4       	brne	.+2      	;  0x7b6
     7b4:	55 c0       	rjmp	.+170    	;  0x860
     7b6:	88 33       	cpi	r24, 0x38	; 56
     7b8:	09 f0       	breq	.+2      	;  0x7bc
     7ba:	e2 c0       	rjmp	.+452    	;  0x980
     7bc:	80 93 60 03 	sts	0x0360, r24	;  0x800360
     7c0:	d5 c0       	rjmp	.+426    	;  0x96c
     7c2:	80 35       	cpi	r24, 0x50	; 80
     7c4:	09 f4       	brne	.+2      	;  0x7c8
     7c6:	4f c0       	rjmp	.+158    	;  0x866
     7c8:	88 35       	cpi	r24, 0x58	; 88
     7ca:	09 f4       	brne	.+2      	;  0x7ce
     7cc:	5d c0       	rjmp	.+186    	;  0x888
     7ce:	88 34       	cpi	r24, 0x48	; 72
     7d0:	09 f0       	breq	.+2      	;  0x7d4
     7d2:	d6 c0       	rjmp	.+428    	;  0x980
     7d4:	d3 c0       	rjmp	.+422    	;  0x97c
     7d6:	88 39       	cpi	r24, 0x98	; 152
     7d8:	09 f4       	brne	.+2      	;  0x7dc
     7da:	c4 c0       	rjmp	.+392    	;  0x964
     7dc:	a8 f4       	brcc	.+42     	;  0x808
     7de:	88 37       	cpi	r24, 0x78	; 120
     7e0:	09 f4       	brne	.+2      	;  0x7e4
     7e2:	67 c0       	rjmp	.+206    	;  0x8b2
     7e4:	38 f4       	brcc	.+14     	;  0x7f4
     7e6:	88 36       	cpi	r24, 0x68	; 104
     7e8:	09 f4       	brne	.+2      	;  0x7ec
     7ea:	63 c0       	rjmp	.+198    	;  0x8b2
     7ec:	80 37       	cpi	r24, 0x70	; 112
     7ee:	09 f4       	brne	.+2      	;  0x7f2
     7f0:	60 c0       	rjmp	.+192    	;  0x8b2
     7f2:	c6 c0       	rjmp	.+396    	;  0x980
     7f4:	88 38       	cpi	r24, 0x88	; 136
     7f6:	09 f4       	brne	.+2      	;  0x7fa
     7f8:	b5 c0       	rjmp	.+362    	;  0x964
     7fa:	80 39       	cpi	r24, 0x90	; 144
     7fc:	09 f4       	brne	.+2      	;  0x800
     7fe:	5f c0       	rjmp	.+190    	;  0x8be
     800:	80 38       	cpi	r24, 0x80	; 128
     802:	09 f0       	breq	.+2      	;  0x806
     804:	bd c0       	rjmp	.+378    	;  0x980
     806:	5b c0       	rjmp	.+182    	;  0x8be
     808:	80 3b       	cpi	r24, 0xB0	; 176
     80a:	09 f4       	brne	.+2      	;  0x80e
     80c:	83 c0       	rjmp	.+262    	;  0x914
     80e:	38 f4       	brcc	.+14     	;  0x81e
     810:	80 3a       	cpi	r24, 0xA0	; 160
     812:	09 f4       	brne	.+2      	;  0x816
     814:	66 c0       	rjmp	.+204    	;  0x8e2
     816:	88 3a       	cpi	r24, 0xA8	; 168
     818:	09 f4       	brne	.+2      	;  0x81c
     81a:	7c c0       	rjmp	.+248    	;  0x914
     81c:	b1 c0       	rjmp	.+354    	;  0x980
     81e:	80 3c       	cpi	r24, 0xC0	; 192
     820:	09 f4       	brne	.+2      	;  0x824
     822:	a4 c0       	rjmp	.+328    	;  0x96c
     824:	88 3c       	cpi	r24, 0xC8	; 200
     826:	09 f4       	brne	.+2      	;  0x82a
     828:	a1 c0       	rjmp	.+322    	;  0x96c
     82a:	88 3b       	cpi	r24, 0xB8	; 184
     82c:	09 f4       	brne	.+2      	;  0x830
     82e:	87 c0       	rjmp	.+270    	;  0x93e
     830:	a7 c0       	rjmp	.+334    	;  0x980
     832:	80 91 3d 03 	lds	r24, 0x033D	;  0x80033d
     836:	10 c0       	rjmp	.+32     	;  0x858
     838:	90 91 5f 03 	lds	r25, 0x035F	;  0x80035f
     83c:	80 91 5e 03 	lds	r24, 0x035E	;  0x80035e
     840:	98 17       	cp	r25, r24
     842:	70 f5       	brcc	.+92     	;  0x8a0
     844:	e0 91 5f 03 	lds	r30, 0x035F	;  0x80035f
     848:	81 e0       	ldi	r24, 0x01	; 1
     84a:	8e 0f       	add	r24, r30
     84c:	80 93 5f 03 	sts	0x035F, r24	;  0x80035f
     850:	f0 e0       	ldi	r31, 0x00	; 0
     852:	e2 5c       	subi	r30, 0xC2	; 194
     854:	fc 4f       	sbci	r31, 0xFC	; 252
     856:	80 81       	ld	r24, Z
     858:	80 93 bb 00 	sts	0x00BB, r24	;  0x8000bb
     85c:	85 ec       	ldi	r24, 0xC5	; 197
     85e:	83 c0       	rjmp	.+262    	;  0x966
     860:	80 93 60 03 	sts	0x0360, r24	;  0x800360
     864:	8b c0       	rjmp	.+278    	;  0x97c
     866:	e0 91 5f 03 	lds	r30, 0x035F	;  0x80035f
     86a:	81 e0       	ldi	r24, 0x01	; 1
     86c:	8e 0f       	add	r24, r30
     86e:	80 93 5f 03 	sts	0x035F, r24	;  0x80035f
     872:	80 91 bb 00 	lds	r24, 0x00BB	;  0x8000bb
     876:	f0 e0       	ldi	r31, 0x00	; 0
     878:	e2 5c       	subi	r30, 0xC2	; 194
     87a:	fc 4f       	sbci	r31, 0xFC	; 252
     87c:	80 83       	st	Z, r24
     87e:	90 91 5f 03 	lds	r25, 0x035F	;  0x80035f
     882:	80 91 5e 03 	lds	r24, 0x035E	;  0x80035e
     886:	6b c0       	rjmp	.+214    	;  0x95e
     888:	e0 91 5f 03 	lds	r30, 0x035F	;  0x80035f
     88c:	81 e0       	ldi	r24, 0x01	; 1
     88e:	8e 0f       	add	r24, r30
     890:	80 93 5f 03 	sts	0x035F, r24	;  0x80035f
     894:	80 91 bb 00 	lds	r24, 0x00BB	;  0x8000bb
     898:	f0 e0       	ldi	r31, 0x00	; 0
     89a:	e2 5c       	subi	r30, 0xC2	; 194
     89c:	fc 4f       	sbci	r31, 0xFC	; 252
     89e:	80 83       	st	Z, r24
     8a0:	80 91 61 03 	lds	r24, 0x0361	;  0x800361
     8a4:	81 11       	cpse	r24, r1
     8a6:	6a c0       	rjmp	.+212    	;  0x97c
     8a8:	81 e0       	ldi	r24, 0x01	; 1
     8aa:	80 93 3c 03 	sts	0x033C, r24	;  0x80033c
     8ae:	84 ea       	ldi	r24, 0xA4	; 164
     8b0:	5e c0       	rjmp	.+188    	;  0x96e
     8b2:	83 e0       	ldi	r24, 0x03	; 3
     8b4:	80 93 62 03 	sts	0x0362, r24	;  0x800362
     8b8:	10 92 fb 02 	sts	0x02FB, r1	;  0x8002fb
     8bc:	cf cf       	rjmp	.-98     	;  0x85c
     8be:	80 91 fb 02 	lds	r24, 0x02FB	;  0x8002fb
     8c2:	80 32       	cpi	r24, 0x20	; 32
     8c4:	08 f0       	brcs	.+2      	;  0x8c8
     8c6:	4e c0       	rjmp	.+156    	;  0x964
     8c8:	e0 91 fb 02 	lds	r30, 0x02FB	;  0x8002fb
     8cc:	81 e0       	ldi	r24, 0x01	; 1
     8ce:	8e 0f       	add	r24, r30
     8d0:	80 93 fb 02 	sts	0x02FB, r24	;  0x8002fb
     8d4:	80 91 bb 00 	lds	r24, 0x00BB	;  0x8000bb
     8d8:	f0 e0       	ldi	r31, 0x00	; 0
     8da:	e5 52       	subi	r30, 0x25	; 37
     8dc:	fd 4f       	sbci	r31, 0xFD	; 253
     8de:	80 83       	st	Z, r24
     8e0:	bd cf       	rjmp	.-134    	;  0x85c
     8e2:	80 91 fb 02 	lds	r24, 0x02FB	;  0x8002fb
     8e6:	80 32       	cpi	r24, 0x20	; 32
     8e8:	30 f4       	brcc	.+12     	;  0x8f6
     8ea:	e0 91 fb 02 	lds	r30, 0x02FB	;  0x8002fb
     8ee:	f0 e0       	ldi	r31, 0x00	; 0
     8f0:	e5 52       	subi	r30, 0x25	; 37
     8f2:	fd 4f       	sbci	r31, 0xFD	; 253
     8f4:	10 82       	st	Z, r1
     8f6:	0e 94 4d 01 	call	0x29a	;  0x29a
     8fa:	60 91 fb 02 	lds	r22, 0x02FB	;  0x8002fb
     8fe:	70 e0       	ldi	r23, 0x00	; 0
     900:	e0 91 d9 02 	lds	r30, 0x02D9	;  0x8002d9
     904:	f0 91 da 02 	lds	r31, 0x02DA	;  0x8002da
     908:	8b ed       	ldi	r24, 0xDB	; 219
     90a:	92 e0       	ldi	r25, 0x02	; 2
     90c:	09 95       	icall
     90e:	10 92 fb 02 	sts	0x02FB, r1	;  0x8002fb
     912:	2c c0       	rjmp	.+88     	;  0x96c
     914:	84 e0       	ldi	r24, 0x04	; 4
     916:	80 93 62 03 	sts	0x0362, r24	;  0x800362
     91a:	10 92 d8 02 	sts	0x02D8, r1	;  0x8002d8
     91e:	10 92 d7 02 	sts	0x02D7, r1	;  0x8002d7
     922:	e0 91 d5 02 	lds	r30, 0x02D5	;  0x8002d5
     926:	f0 91 d6 02 	lds	r31, 0x02D6	;  0x8002d6
     92a:	09 95       	icall
     92c:	80 91 d7 02 	lds	r24, 0x02D7	;  0x8002d7
     930:	81 11       	cpse	r24, r1
     932:	05 c0       	rjmp	.+10     	;  0x93e
     934:	81 e0       	ldi	r24, 0x01	; 1
     936:	80 93 d7 02 	sts	0x02D7, r24	;  0x8002d7
     93a:	10 92 b5 02 	sts	0x02B5, r1	;  0x8002b5
     93e:	e0 91 d8 02 	lds	r30, 0x02D8	;  0x8002d8
     942:	81 e0       	ldi	r24, 0x01	; 1
     944:	8e 0f       	add	r24, r30
     946:	80 93 d8 02 	sts	0x02D8, r24	;  0x8002d8
     94a:	f0 e0       	ldi	r31, 0x00	; 0
     94c:	eb 54       	subi	r30, 0x4B	; 75
     94e:	fd 4f       	sbci	r31, 0xFD	; 253
     950:	80 81       	ld	r24, Z
     952:	80 93 bb 00 	sts	0x00BB, r24	;  0x8000bb
     956:	90 91 d8 02 	lds	r25, 0x02D8	;  0x8002d8
     95a:	80 91 d7 02 	lds	r24, 0x02D7	;  0x8002d7
     95e:	98 17       	cp	r25, r24
     960:	08 f4       	brcc	.+2      	;  0x964
     962:	7c cf       	rjmp	.-264    	;  0x85c
     964:	85 e8       	ldi	r24, 0x85	; 133
     966:	80 93 bc 00 	sts	0x00BC, r24	;  0x8000bc
     96a:	0a c0       	rjmp	.+20     	;  0x980
     96c:	85 ec       	ldi	r24, 0xC5	; 197
     96e:	80 93 bc 00 	sts	0x00BC, r24	;  0x8000bc
     972:	10 92 62 03 	sts	0x0362, r1	;  0x800362
     976:	04 c0       	rjmp	.+8      	;  0x980
     978:	10 92 60 03 	sts	0x0360, r1	;  0x800360
     97c:	0e 94 4d 01 	call	0x29a	;  0x29a
     980:	ff 91       	pop	r31
     982:	ef 91       	pop	r30
     984:	bf 91       	pop	r27
     986:	af 91       	pop	r26
     988:	9f 91       	pop	r25
     98a:	8f 91       	pop	r24
     98c:	7f 91       	pop	r23
     98e:	6f 91       	pop	r22
     990:	5f 91       	pop	r21
     992:	4f 91       	pop	r20
     994:	3f 91       	pop	r19
     996:	2f 91       	pop	r18
     998:	0f 90       	pop	r0
     99a:	0f be       	out	0x3f, r0	; 63
     99c:	0f 90       	pop	r0
     99e:	1f 90       	pop	r1
     9a0:	18 95       	reti
     9a2:	0f 93       	push	r16
     9a4:	1f 93       	push	r17
     9a6:	cf 93       	push	r28
     9a8:	df 93       	push	r29
     9aa:	ec 01       	movw	r28, r24
     9ac:	06 2f       	mov	r16, r22
     9ae:	14 2f       	mov	r17, r20
     9b0:	81 e0       	ldi	r24, 0x01	; 1
     9b2:	90 e0       	ldi	r25, 0x00	; 0
     9b4:	99 83       	std	Y+1, r25	; 0x01
     9b6:	88 83       	st	Y, r24
     9b8:	86 e3       	ldi	r24, 0x36	; 54
     9ba:	91 e0       	ldi	r25, 0x01	; 1
     9bc:	9f 83       	std	Y+7, r25	; 0x07
     9be:	8e 83       	std	Y+6, r24	; 0x06
     9c0:	80 ef       	ldi	r24, 0xF0	; 240
     9c2:	9a eb       	ldi	r25, 0xBA	; 186
     9c4:	a4 e0       	ldi	r26, 0x04	; 4
     9c6:	b0 e0       	ldi	r27, 0x00	; 0
     9c8:	88 87       	std	Y+8, r24	; 0x08
     9ca:	99 87       	std	Y+9, r25	; 0x09
     9cc:	aa 87       	std	Y+10, r26	; 0x0a
     9ce:	bb 87       	std	Y+11, r27	; 0x0b
     9d0:	80 e2       	ldi	r24, 0x20	; 32
     9d2:	9e e4       	ldi	r25, 0x4E	; 78
     9d4:	a0 e0       	ldi	r26, 0x00	; 0
     9d6:	b0 e0       	ldi	r27, 0x00	; 0
     9d8:	8c 87       	std	Y+12, r24	; 0x0c
     9da:	9d 87       	std	Y+13, r25	; 0x0d
     9dc:	ae 87       	std	Y+14, r26	; 0x0e
     9de:	bf 87       	std	Y+15, r27	; 0x0f
     9e0:	6f 31       	cpi	r22, 0x1F	; 31
     9e2:	20 f0       	brcs	.+8      	;  0x9ec
     9e4:	8f ef       	ldi	r24, 0xFF	; 255
     9e6:	9f ef       	ldi	r25, 0xFF	; 255
     9e8:	99 83       	std	Y+1, r25	; 0x01
     9ea:	88 83       	st	Y, r24
     9ec:	1f 31       	cpi	r17, 0x1F	; 31
     9ee:	20 f0       	brcs	.+8      	;  0x9f8
     9f0:	8f ef       	ldi	r24, 0xFF	; 255
     9f2:	9f ef       	ldi	r25, 0xFF	; 255
     9f4:	99 83       	std	Y+1, r25	; 0x01
     9f6:	88 83       	st	Y, r24
     9f8:	61 e0       	ldi	r22, 0x01	; 1
     9fa:	80 2f       	mov	r24, r16
     9fc:	0e 94 96 02 	call	0x52c	;  0x52c
     a00:	60 e0       	ldi	r22, 0x00	; 0
     a02:	81 2f       	mov	r24, r17
     a04:	0e 94 96 02 	call	0x52c	;  0x52c
     a08:	60 e0       	ldi	r22, 0x00	; 0
     a0a:	80 2f       	mov	r24, r16
     a0c:	0e 94 66 02 	call	0x4cc	;  0x4cc
     a10:	60 2f       	mov	r22, r16
     a12:	70 e0       	ldi	r23, 0x00	; 0
     a14:	fb 01       	movw	r30, r22
     a16:	e1 5c       	subi	r30, 0xC1	; 193
     a18:	fe 4f       	sbci	r31, 0xFE	; 254
     a1a:	e4 91       	lpm	r30, Z
     a1c:	e8 8f       	std	Y+24, r30	; 0x18
     a1e:	fb 01       	movw	r30, r22
     a20:	e4 59       	subi	r30, 0x94	; 148
     a22:	fe 4f       	sbci	r31, 0xFE	; 254
     a24:	e4 91       	lpm	r30, Z
     a26:	f0 e0       	ldi	r31, 0x00	; 0
     a28:	ee 0f       	add	r30, r30
     a2a:	ff 1f       	adc	r31, r31
     a2c:	e5 57       	subi	r30, 0x75	; 117
     a2e:	fe 4f       	sbci	r31, 0xFE	; 254
     a30:	85 91       	lpm	r24, Z+
     a32:	94 91       	lpm	r25, Z
     a34:	9a 8f       	std	Y+26, r25	; 0x1a
     a36:	89 8f       	std	Y+25, r24	; 0x19
     a38:	41 2f       	mov	r20, r17
     a3a:	50 e0       	ldi	r21, 0x00	; 0
     a3c:	fa 01       	movw	r30, r20
     a3e:	e1 5c       	subi	r30, 0xC1	; 193
     a40:	fe 4f       	sbci	r31, 0xFE	; 254
     a42:	e4 91       	lpm	r30, Z
     a44:	eb 8f       	std	Y+27, r30	; 0x1b
     a46:	fa 01       	movw	r30, r20
     a48:	e4 59       	subi	r30, 0x94	; 148
     a4a:	fe 4f       	sbci	r31, 0xFE	; 254
     a4c:	e4 91       	lpm	r30, Z
     a4e:	f0 e0       	ldi	r31, 0x00	; 0
     a50:	ee 0f       	add	r30, r30
     a52:	ff 1f       	adc	r31, r31
     a54:	e5 57       	subi	r30, 0x75	; 117
     a56:	fe 4f       	sbci	r31, 0xFE	; 254
     a58:	85 91       	lpm	r24, Z+
     a5a:	94 91       	lpm	r25, Z
     a5c:	9d 8f       	std	Y+29, r25	; 0x1d
     a5e:	8c 8f       	std	Y+28, r24	; 0x1c
     a60:	8f ef       	ldi	r24, 0xFF	; 255
     a62:	9f ef       	ldi	r25, 0xFF	; 255
     a64:	af ef       	ldi	r26, 0xFF	; 255
     a66:	bf e0       	ldi	r27, 0x0F	; 15
     a68:	8a 83       	std	Y+2, r24	; 0x02
     a6a:	9b 83       	std	Y+3, r25	; 0x03
     a6c:	ac 83       	std	Y+4, r26	; 0x04
     a6e:	bd 83       	std	Y+5, r27	; 0x05
     a70:	2f b7       	in	r18, 0x3f	; 63
     a72:	f8 94       	cli
     a74:	80 91 03 03 	lds	r24, 0x0303	;  0x800303
     a78:	90 91 04 03 	lds	r25, 0x0304	;  0x800304
     a7c:	a0 91 05 03 	lds	r26, 0x0305	;  0x800305
     a80:	b0 91 06 03 	lds	r27, 0x0306	;  0x800306
     a84:	2f bf       	out	0x3f, r18	; 63
     a86:	88 8b       	std	Y+16, r24	; 0x10
     a88:	99 8b       	std	Y+17, r25	; 0x11
     a8a:	aa 8b       	std	Y+18, r26	; 0x12
     a8c:	bb 8b       	std	Y+19, r27	; 0x13
     a8e:	df 91       	pop	r29
     a90:	cf 91       	pop	r28
     a92:	1f 91       	pop	r17
     a94:	0f 91       	pop	r16
     a96:	08 95       	ret
     a98:	cf 93       	push	r28
     a9a:	df 93       	push	r29
     a9c:	ec 01       	movw	r28, r24
     a9e:	88 85       	ldd	r24, Y+8	; 0x08
     aa0:	99 85       	ldd	r25, Y+9	; 0x09
     aa2:	00 97       	sbiw	r24, 0x00	; 0
     aa4:	11 f0       	breq	.+4      	;  0xaaa
     aa6:	0e 94 0e 1d 	call	0x3a1c	;  0x3a1c
     aaa:	8e 81       	ldd	r24, Y+6	; 0x06
     aac:	87 fd       	sbrc	r24, 7
     aae:	05 c0       	rjmp	.+10     	;  0xaba
     ab0:	60 e0       	ldi	r22, 0x00	; 0
     ab2:	df 91       	pop	r29
     ab4:	cf 91       	pop	r28
     ab6:	0c 94 96 02 	jmp	0x52c	;  0x52c
     aba:	df 91       	pop	r29
     abc:	cf 91       	pop	r28
     abe:	08 95       	ret
     ac0:	cf 92       	push	r12
     ac2:	df 92       	push	r13
     ac4:	ef 92       	push	r14
     ac6:	ff 92       	push	r15
     ac8:	0f 93       	push	r16
     aca:	1f 93       	push	r17
     acc:	cf 93       	push	r28
     ace:	df 93       	push	r29
     ad0:	fc 01       	movw	r30, r24
     ad2:	25 8d       	ldd	r18, Z+29	; 0x1d
     ad4:	2f 3f       	cpi	r18, 0xFF	; 255
     ad6:	39 f4       	brne	.+14     	;  0xae6
     ad8:	6e bd       	out	0x2e, r22	; 46
     ada:	00 00       	nop
     adc:	0d b4       	in	r0, 0x2d	; 45
     ade:	07 fe       	sbrs	r0, 7
     ae0:	fd cf       	rjmp	.-6      	;  0xadc
     ae2:	8e b5       	in	r24, 0x2e	; 46
     ae4:	2b c0       	rjmp	.+86     	;  0xb3c
     ae6:	d6 2f       	mov	r29, r22
     ae8:	8c 01       	movw	r16, r24
     aea:	87 e0       	ldi	r24, 0x07	; 7
     aec:	e8 2e       	mov	r14, r24
     aee:	f1 2c       	mov	r15, r1
     af0:	c0 e0       	ldi	r28, 0x00	; 0
     af2:	cc 24       	eor	r12, r12
     af4:	c3 94       	inc	r12
     af6:	d1 2c       	mov	r13, r1
     af8:	cc 0f       	add	r28, r28
     afa:	60 e0       	ldi	r22, 0x00	; 0
     afc:	f8 01       	movw	r30, r16
     afe:	85 8d       	ldd	r24, Z+29	; 0x1d
     b00:	0e 94 66 02 	call	0x4cc	;  0x4cc
     b04:	b6 01       	movw	r22, r12
     b06:	0e 2c       	mov	r0, r14
     b08:	01 c0       	rjmp	.+2      	;  0xb0c
     b0a:	66 0f       	add	r22, r22
     b0c:	0a 94       	dec	r0
     b0e:	ea f7       	brpl	.-6      	;  0xb0a
     b10:	6d 23       	and	r22, r29
     b12:	f8 01       	movw	r30, r16
     b14:	83 8d       	ldd	r24, Z+27	; 0x1b
     b16:	0e 94 66 02 	call	0x4cc	;  0x4cc
     b1a:	61 e0       	ldi	r22, 0x01	; 1
     b1c:	f8 01       	movw	r30, r16
     b1e:	85 8d       	ldd	r24, Z+29	; 0x1d
     b20:	0e 94 66 02 	call	0x4cc	;  0x4cc
     b24:	f8 01       	movw	r30, r16
     b26:	84 8d       	ldd	r24, Z+28	; 0x1c
     b28:	0e 94 77 11 	call	0x22ee	;  0x22ee
     b2c:	89 2b       	or	r24, r25
     b2e:	09 f0       	breq	.+2      	;  0xb32
     b30:	c1 60       	ori	r28, 0x01	; 1
     b32:	f1 e0       	ldi	r31, 0x01	; 1
     b34:	ef 1a       	sub	r14, r31
     b36:	f1 08       	sbc	r15, r1
     b38:	f8 f6       	brcc	.-66     	;  0xaf8
     b3a:	8c 2f       	mov	r24, r28
     b3c:	df 91       	pop	r29
     b3e:	cf 91       	pop	r28
     b40:	1f 91       	pop	r17
     b42:	0f 91       	pop	r16
     b44:	ff 90       	pop	r15
     b46:	ef 90       	pop	r14
     b48:	df 90       	pop	r13
     b4a:	cf 90       	pop	r12
     b4c:	08 95       	ret
     b4e:	08 95       	ret
     b50:	8c bd       	out	0x2c, r24	; 44
     b52:	9d bd       	out	0x2d, r25	; 45
     b54:	08 95       	ret
     b56:	1f 93       	push	r17
     b58:	cf 93       	push	r28
     b5a:	df 93       	push	r29
     b5c:	ec 01       	movw	r28, r24
     b5e:	16 2f       	mov	r17, r22
     b60:	8a 8d       	ldd	r24, Y+26	; 0x1a
     b62:	8f 3f       	cpi	r24, 0xFF	; 255
     b64:	f1 f4       	brne	.+60     	;  0xba2
     b66:	89 8d       	ldd	r24, Y+25	; 0x19
     b68:	91 e0       	ldi	r25, 0x01	; 1
     b6a:	90 93 63 03 	sts	0x0363, r25	;  0x800363
     b6e:	80 93 85 03 	sts	0x0385, r24	;  0x800385
     b72:	10 92 64 03 	sts	0x0364, r1	;  0x800364
     b76:	10 92 86 03 	sts	0x0386, r1	;  0x800386
     b7a:	87 ed       	ldi	r24, 0xD7	; 215
     b7c:	93 e0       	ldi	r25, 0x03	; 3
     b7e:	0e 94 c0 01 	call	0x380	;  0x380
     b82:	0e 94 e0 12 	call	0x25c0	;  0x25c0
     b86:	89 8d       	ldd	r24, Y+25	; 0x19
     b88:	61 e0       	ldi	r22, 0x01	; 1
     b8a:	70 e0       	ldi	r23, 0x00	; 0
     b8c:	08 2e       	mov	r0, r24
     b8e:	00 0c       	add	r0, r0
     b90:	99 0b       	sbc	r25, r25
     b92:	0e 94 82 13 	call	0x2704	;  0x2704
     b96:	87 ed       	ldi	r24, 0xD7	; 215
     b98:	93 e0       	ldi	r25, 0x03	; 3
     b9a:	0e 94 67 01 	call	0x2ce	;  0x2ce
     b9e:	18 2f       	mov	r17, r24
     ba0:	19 c0       	rjmp	.+50     	;  0xbd4
     ba2:	8d 8d       	ldd	r24, Y+29	; 0x1d
     ba4:	8f 3f       	cpi	r24, 0xFF	; 255
     ba6:	21 f4       	brne	.+8      	;  0xbb0
     ba8:	81 e5       	ldi	r24, 0x51	; 81
     baa:	90 e0       	ldi	r25, 0x00	; 0
     bac:	0e 94 a8 05 	call	0xb50	;  0xb50
     bb0:	60 e0       	ldi	r22, 0x00	; 0
     bb2:	8a 8d       	ldd	r24, Y+26	; 0x1a
     bb4:	0e 94 66 02 	call	0x4cc	;  0x4cc
     bb8:	61 2f       	mov	r22, r17
     bba:	60 68       	ori	r22, 0x80	; 128
     bbc:	ce 01       	movw	r24, r28
     bbe:	0e 94 60 05 	call	0xac0	;  0xac0
     bc2:	60 e0       	ldi	r22, 0x00	; 0
     bc4:	ce 01       	movw	r24, r28
     bc6:	0e 94 60 05 	call	0xac0	;  0xac0
     bca:	18 2f       	mov	r17, r24
     bcc:	61 e0       	ldi	r22, 0x01	; 1
     bce:	8a 8d       	ldd	r24, Y+26	; 0x1a
     bd0:	0e 94 66 02 	call	0x4cc	;  0x4cc
     bd4:	81 2f       	mov	r24, r17
     bd6:	df 91       	pop	r29
     bd8:	cf 91       	pop	r28
     bda:	1f 91       	pop	r17
     bdc:	08 95       	ret
     bde:	8f 92       	push	r8
     be0:	9f 92       	push	r9
     be2:	af 92       	push	r10
     be4:	bf 92       	push	r11
     be6:	cf 92       	push	r12
     be8:	df 92       	push	r13
     bea:	ef 92       	push	r14
     bec:	ff 92       	push	r15
     bee:	0f 93       	push	r16
     bf0:	1f 93       	push	r17
     bf2:	cf 93       	push	r28
     bf4:	df 93       	push	r29
     bf6:	ec 01       	movw	r28, r24
     bf8:	8b 01       	movw	r16, r22
     bfa:	84 e2       	ldi	r24, 0x24	; 36
     bfc:	fb 01       	movw	r30, r22
     bfe:	11 92       	st	Z+, r1
     c00:	8a 95       	dec	r24
     c02:	e9 f7       	brne	.-6      	;  0xbfe
     c04:	84 e2       	ldi	r24, 0x24	; 36
     c06:	90 e0       	ldi	r25, 0x00	; 0
     c08:	a0 e0       	ldi	r26, 0x00	; 0
     c0a:	b0 e0       	ldi	r27, 0x00	; 0
     c0c:	fb 01       	movw	r30, r22
     c0e:	80 83       	st	Z, r24
     c10:	91 83       	std	Z+1, r25	; 0x01
     c12:	a2 83       	std	Z+2, r26	; 0x02
     c14:	b3 83       	std	Z+3, r27	; 0x03
     c16:	8d 89       	ldd	r24, Y+21	; 0x15
     c18:	9e 89       	ldd	r25, Y+22	; 0x16
     c1a:	af 89       	ldd	r26, Y+23	; 0x17
     c1c:	b8 8d       	ldd	r27, Y+24	; 0x18
     c1e:	84 83       	std	Z+4, r24	; 0x04
     c20:	95 83       	std	Z+5, r25	; 0x05
     c22:	a6 83       	std	Z+6, r26	; 0x06
     c24:	b7 83       	std	Z+7, r27	; 0x07
     c26:	81 e0       	ldi	r24, 0x01	; 1
     c28:	90 e0       	ldi	r25, 0x00	; 0
     c2a:	a0 e0       	ldi	r26, 0x00	; 0
     c2c:	b0 e0       	ldi	r27, 0x00	; 0
     c2e:	80 87       	std	Z+8, r24	; 0x08
     c30:	91 87       	std	Z+9, r25	; 0x09
     c32:	a2 87       	std	Z+10, r26	; 0x0a
     c34:	b3 87       	std	Z+11, r27	; 0x0b
     c36:	10 8a       	std	Z+16, r1	; 0x10
     c38:	11 8a       	std	Z+17, r1	; 0x11
     c3a:	12 8a       	std	Z+18, r1	; 0x12
     c3c:	13 8a       	std	Z+19, r1	; 0x13
     c3e:	8a 8d       	ldd	r24, Y+26	; 0x1a
     c40:	8f 3f       	cpi	r24, 0xFF	; 255
     c42:	09 f0       	breq	.+2      	;  0xc46
     c44:	53 c0       	rjmp	.+166    	;  0xcec
     c46:	89 8d       	ldd	r24, Y+25	; 0x19
     c48:	91 e0       	ldi	r25, 0x01	; 1
     c4a:	90 93 63 03 	sts	0x0363, r25	;  0x800363
     c4e:	80 93 85 03 	sts	0x0385, r24	;  0x800385
     c52:	10 92 64 03 	sts	0x0364, r1	;  0x800364
     c56:	10 92 86 03 	sts	0x0386, r1	;  0x800386
     c5a:	68 ea       	ldi	r22, 0xA8	; 168
     c5c:	87 ed       	ldi	r24, 0xD7	; 215
     c5e:	93 e0       	ldi	r25, 0x03	; 3
     c60:	0e 94 c0 01 	call	0x380	;  0x380
     c64:	0e 94 e0 12 	call	0x25c0	;  0x25c0
     c68:	89 8d       	ldd	r24, Y+25	; 0x19
     c6a:	66 e0       	ldi	r22, 0x06	; 6
     c6c:	70 e0       	ldi	r23, 0x00	; 0
     c6e:	08 2e       	mov	r0, r24
     c70:	00 0c       	add	r0, r0
     c72:	99 0b       	sbc	r25, r25
     c74:	0e 94 82 13 	call	0x2704	;  0x2704
     c78:	87 ed       	ldi	r24, 0xD7	; 215
     c7a:	93 e0       	ldi	r25, 0x03	; 3
     c7c:	0e 94 67 01 	call	0x2ce	;  0x2ce
     c80:	9c 83       	std	Y+4, r25	; 0x04
     c82:	8b 83       	std	Y+3, r24	; 0x03
     c84:	87 ed       	ldi	r24, 0xD7	; 215
     c86:	93 e0       	ldi	r25, 0x03	; 3
     c88:	0e 94 67 01 	call	0x2ce	;  0x2ce
     c8c:	20 e0       	ldi	r18, 0x00	; 0
     c8e:	30 e0       	ldi	r19, 0x00	; 0
     c90:	38 2f       	mov	r19, r24
     c92:	8b 81       	ldd	r24, Y+3	; 0x03
     c94:	9c 81       	ldd	r25, Y+4	; 0x04
     c96:	28 2b       	or	r18, r24
     c98:	39 2b       	or	r19, r25
     c9a:	3c 83       	std	Y+4, r19	; 0x04
     c9c:	2b 83       	std	Y+3, r18	; 0x03
     c9e:	87 ed       	ldi	r24, 0xD7	; 215
     ca0:	93 e0       	ldi	r25, 0x03	; 3
     ca2:	0e 94 67 01 	call	0x2ce	;  0x2ce
     ca6:	9e 83       	std	Y+6, r25	; 0x06
     ca8:	8d 83       	std	Y+5, r24	; 0x05
     caa:	87 ed       	ldi	r24, 0xD7	; 215
     cac:	93 e0       	ldi	r25, 0x03	; 3
     cae:	0e 94 67 01 	call	0x2ce	;  0x2ce
     cb2:	20 e0       	ldi	r18, 0x00	; 0
     cb4:	30 e0       	ldi	r19, 0x00	; 0
     cb6:	38 2f       	mov	r19, r24
     cb8:	8d 81       	ldd	r24, Y+5	; 0x05
     cba:	9e 81       	ldd	r25, Y+6	; 0x06
     cbc:	28 2b       	or	r18, r24
     cbe:	39 2b       	or	r19, r25
     cc0:	3e 83       	std	Y+6, r19	; 0x06
     cc2:	2d 83       	std	Y+5, r18	; 0x05
     cc4:	87 ed       	ldi	r24, 0xD7	; 215
     cc6:	93 e0       	ldi	r25, 0x03	; 3
     cc8:	0e 94 67 01 	call	0x2ce	;  0x2ce
     ccc:	98 87       	std	Y+8, r25	; 0x08
     cce:	8f 83       	std	Y+7, r24	; 0x07
     cd0:	87 ed       	ldi	r24, 0xD7	; 215
     cd2:	93 e0       	ldi	r25, 0x03	; 3
     cd4:	0e 94 67 01 	call	0x2ce	;  0x2ce
     cd8:	20 e0       	ldi	r18, 0x00	; 0
     cda:	30 e0       	ldi	r19, 0x00	; 0
     cdc:	38 2f       	mov	r19, r24
     cde:	8f 81       	ldd	r24, Y+7	; 0x07
     ce0:	98 85       	ldd	r25, Y+8	; 0x08
     ce2:	28 2b       	or	r18, r24
     ce4:	39 2b       	or	r19, r25
     ce6:	38 87       	std	Y+8, r19	; 0x08
     ce8:	2f 83       	std	Y+7, r18	; 0x07
     cea:	43 c0       	rjmp	.+134    	;  0xd72
     cec:	8d 8d       	ldd	r24, Y+29	; 0x1d
     cee:	8f 3f       	cpi	r24, 0xFF	; 255
     cf0:	21 f4       	brne	.+8      	;  0xcfa
     cf2:	81 e5       	ldi	r24, 0x51	; 81
     cf4:	90 e0       	ldi	r25, 0x00	; 0
     cf6:	0e 94 a8 05 	call	0xb50	;  0xb50
     cfa:	60 e0       	ldi	r22, 0x00	; 0
     cfc:	8a 8d       	ldd	r24, Y+26	; 0x1a
     cfe:	0e 94 66 02 	call	0x4cc	;  0x4cc
     d02:	68 ee       	ldi	r22, 0xE8	; 232
     d04:	ce 01       	movw	r24, r28
     d06:	0e 94 60 05 	call	0xac0	;  0xac0
     d0a:	6f ef       	ldi	r22, 0xFF	; 255
     d0c:	ce 01       	movw	r24, r28
     d0e:	0e 94 60 05 	call	0xac0	;  0xac0
     d12:	90 e0       	ldi	r25, 0x00	; 0
     d14:	9c 83       	std	Y+4, r25	; 0x04
     d16:	8b 83       	std	Y+3, r24	; 0x03
     d18:	6f ef       	ldi	r22, 0xFF	; 255
     d1a:	ce 01       	movw	r24, r28
     d1c:	0e 94 60 05 	call	0xac0	;  0xac0
     d20:	2b 81       	ldd	r18, Y+3	; 0x03
     d22:	3c 81       	ldd	r19, Y+4	; 0x04
     d24:	38 2b       	or	r19, r24
     d26:	3c 83       	std	Y+4, r19	; 0x04
     d28:	2b 83       	std	Y+3, r18	; 0x03
     d2a:	6f ef       	ldi	r22, 0xFF	; 255
     d2c:	ce 01       	movw	r24, r28
     d2e:	0e 94 60 05 	call	0xac0	;  0xac0
     d32:	90 e0       	ldi	r25, 0x00	; 0
     d34:	9e 83       	std	Y+6, r25	; 0x06
     d36:	8d 83       	std	Y+5, r24	; 0x05
     d38:	6f ef       	ldi	r22, 0xFF	; 255
     d3a:	ce 01       	movw	r24, r28
     d3c:	0e 94 60 05 	call	0xac0	;  0xac0
     d40:	2d 81       	ldd	r18, Y+5	; 0x05
     d42:	3e 81       	ldd	r19, Y+6	; 0x06
     d44:	38 2b       	or	r19, r24
     d46:	3e 83       	std	Y+6, r19	; 0x06
     d48:	2d 83       	std	Y+5, r18	; 0x05
     d4a:	6f ef       	ldi	r22, 0xFF	; 255
     d4c:	ce 01       	movw	r24, r28
     d4e:	0e 94 60 05 	call	0xac0	;  0xac0
     d52:	90 e0       	ldi	r25, 0x00	; 0
     d54:	98 87       	std	Y+8, r25	; 0x08
     d56:	8f 83       	std	Y+7, r24	; 0x07
     d58:	6f ef       	ldi	r22, 0xFF	; 255
     d5a:	ce 01       	movw	r24, r28
     d5c:	0e 94 60 05 	call	0xac0	;  0xac0
     d60:	2f 81       	ldd	r18, Y+7	; 0x07
     d62:	38 85       	ldd	r19, Y+8	; 0x08
     d64:	38 2b       	or	r19, r24
     d66:	38 87       	std	Y+8, r19	; 0x08
     d68:	2f 83       	std	Y+7, r18	; 0x07
     d6a:	61 e0       	ldi	r22, 0x01	; 1
     d6c:	8a 8d       	ldd	r24, Y+26	; 0x1a
     d6e:	0e 94 66 02 	call	0x4cc	;  0x4cc
     d72:	63 e2       	ldi	r22, 0x23	; 35
     d74:	ce 01       	movw	r24, r28
     d76:	0e 94 ab 05 	call	0xb56	;  0xb56
     d7a:	90 e0       	ldi	r25, 0x00	; 0
     d7c:	24 e0       	ldi	r18, 0x04	; 4
     d7e:	95 95       	asr	r25
     d80:	87 95       	ror	r24
     d82:	2a 95       	dec	r18
     d84:	e1 f7       	brne	.-8      	;  0xd7e
     d86:	83 70       	andi	r24, 0x03	; 3
     d88:	99 27       	eor	r25, r25
     d8a:	83 30       	cpi	r24, 0x03	; 3
     d8c:	91 05       	cpc	r25, r1
     d8e:	99 f0       	breq	.+38     	;  0xdb6
     d90:	82 30       	cpi	r24, 0x02	; 2
     d92:	91 05       	cpc	r25, r1
     d94:	51 f0       	breq	.+20     	;  0xdaa
     d96:	81 30       	cpi	r24, 0x01	; 1
     d98:	91 05       	cpc	r25, r1
     d9a:	51 f0       	breq	.+20     	;  0xdb0
     d9c:	61 e0       	ldi	r22, 0x01	; 1
     d9e:	70 e0       	ldi	r23, 0x00	; 0
     da0:	89 2b       	or	r24, r25
     da2:	59 f4       	brne	.+22     	;  0xdba
     da4:	6c ef       	ldi	r22, 0xFC	; 252
     da6:	7f e3       	ldi	r23, 0x3F	; 63
     da8:	08 c0       	rjmp	.+16     	;  0xdba
     daa:	60 e0       	ldi	r22, 0x00	; 0
     dac:	70 e1       	ldi	r23, 0x10	; 16
     dae:	05 c0       	rjmp	.+10     	;  0xdba
     db0:	6e ef       	ldi	r22, 0xFE	; 254
     db2:	7f e1       	ldi	r23, 0x1F	; 31
     db4:	02 c0       	rjmp	.+4      	;  0xdba
     db6:	65 e5       	ldi	r22, 0x55	; 85
     db8:	75 e0       	ldi	r23, 0x05	; 5
     dba:	80 e0       	ldi	r24, 0x00	; 0
     dbc:	90 e0       	ldi	r25, 0x00	; 0
     dbe:	0e 94 cb 1a 	call	0x3596	;  0x3596
     dc2:	6b 01       	movw	r12, r22
     dc4:	7c 01       	movw	r14, r24
     dc6:	6b 81       	ldd	r22, Y+3	; 0x03
     dc8:	7c 81       	ldd	r23, Y+4	; 0x04
     dca:	07 2e       	mov	r0, r23
     dcc:	00 0c       	add	r0, r0
     dce:	88 0b       	sbc	r24, r24
     dd0:	99 0b       	sbc	r25, r25
     dd2:	0e 94 cd 1a 	call	0x359a	;  0x359a
     dd6:	a7 01       	movw	r20, r14
     dd8:	96 01       	movw	r18, r12
     dda:	0e 94 23 1a 	call	0x3446	;  0x3446
     dde:	4b 01       	movw	r8, r22
     de0:	5c 01       	movw	r10, r24
     de2:	69 87       	std	Y+9, r22	; 0x09
     de4:	7a 87       	std	Y+10, r23	; 0x0a
     de6:	8b 87       	std	Y+11, r24	; 0x0b
     de8:	9c 87       	std	Y+12, r25	; 0x0c
     dea:	6d 81       	ldd	r22, Y+5	; 0x05
     dec:	7e 81       	ldd	r23, Y+6	; 0x06
     dee:	07 2e       	mov	r0, r23
     df0:	00 0c       	add	r0, r0
     df2:	88 0b       	sbc	r24, r24
     df4:	99 0b       	sbc	r25, r25
     df6:	0e 94 cd 1a 	call	0x359a	;  0x359a
     dfa:	a7 01       	movw	r20, r14
     dfc:	96 01       	movw	r18, r12
     dfe:	0e 94 23 1a 	call	0x3446	;  0x3446
     e02:	6d 87       	std	Y+13, r22	; 0x0d
     e04:	7e 87       	std	Y+14, r23	; 0x0e
     e06:	8f 87       	std	Y+15, r24	; 0x0f
     e08:	98 8b       	std	Y+16, r25	; 0x10
     e0a:	6f 81       	ldd	r22, Y+7	; 0x07
     e0c:	78 85       	ldd	r23, Y+8	; 0x08
     e0e:	07 2e       	mov	r0, r23
     e10:	00 0c       	add	r0, r0
     e12:	88 0b       	sbc	r24, r24
     e14:	99 0b       	sbc	r25, r25
     e16:	0e 94 cd 1a 	call	0x359a	;  0x359a
     e1a:	a7 01       	movw	r20, r14
     e1c:	96 01       	movw	r18, r12
     e1e:	0e 94 23 1a 	call	0x3446	;  0x3446
     e22:	69 8b       	std	Y+17, r22	; 0x11
     e24:	7a 8b       	std	Y+18, r23	; 0x12
     e26:	8b 8b       	std	Y+19, r24	; 0x13
     e28:	9c 8b       	std	Y+20, r25	; 0x14
     e2a:	2a e0       	ldi	r18, 0x0A	; 10
     e2c:	38 ee       	ldi	r19, 0xE8	; 232
     e2e:	4c e1       	ldi	r20, 0x1C	; 28
     e30:	51 e4       	ldi	r21, 0x41	; 65
     e32:	c5 01       	movw	r24, r10
     e34:	b4 01       	movw	r22, r8
     e36:	0e 94 d2 1b 	call	0x37a4	;  0x37a4
     e3a:	f8 01       	movw	r30, r16
     e3c:	64 8b       	std	Z+20, r22	; 0x14
     e3e:	75 8b       	std	Z+21, r23	; 0x15
     e40:	86 8b       	std	Z+22, r24	; 0x16
     e42:	97 8b       	std	Z+23, r25	; 0x17
     e44:	2a e0       	ldi	r18, 0x0A	; 10
     e46:	38 ee       	ldi	r19, 0xE8	; 232
     e48:	4c e1       	ldi	r20, 0x1C	; 28
     e4a:	51 e4       	ldi	r21, 0x41	; 65
     e4c:	6d 85       	ldd	r22, Y+13	; 0x0d
     e4e:	7e 85       	ldd	r23, Y+14	; 0x0e
     e50:	8f 85       	ldd	r24, Y+15	; 0x0f
     e52:	98 89       	ldd	r25, Y+16	; 0x10
     e54:	0e 94 d2 1b 	call	0x37a4	;  0x37a4
     e58:	f8 01       	movw	r30, r16
     e5a:	60 8f       	std	Z+24, r22	; 0x18
     e5c:	71 8f       	std	Z+25, r23	; 0x19
     e5e:	82 8f       	std	Z+26, r24	; 0x1a
     e60:	93 8f       	std	Z+27, r25	; 0x1b
     e62:	2a e0       	ldi	r18, 0x0A	; 10
     e64:	38 ee       	ldi	r19, 0xE8	; 232
     e66:	4c e1       	ldi	r20, 0x1C	; 28
     e68:	51 e4       	ldi	r21, 0x41	; 65
     e6a:	69 89       	ldd	r22, Y+17	; 0x11
     e6c:	7a 89       	ldd	r23, Y+18	; 0x12
     e6e:	8b 89       	ldd	r24, Y+19	; 0x13
     e70:	9c 89       	ldd	r25, Y+20	; 0x14
     e72:	0e 94 d2 1b 	call	0x37a4	;  0x37a4
     e76:	f8 01       	movw	r30, r16
     e78:	64 8f       	std	Z+28, r22	; 0x1c
     e7a:	75 8f       	std	Z+29, r23	; 0x1d
     e7c:	86 8f       	std	Z+30, r24	; 0x1e
     e7e:	97 8f       	std	Z+31, r25	; 0x1f
     e80:	80 e0       	ldi	r24, 0x00	; 0
     e82:	df 91       	pop	r29
     e84:	cf 91       	pop	r28
     e86:	1f 91       	pop	r17
     e88:	0f 91       	pop	r16
     e8a:	ff 90       	pop	r15
     e8c:	ef 90       	pop	r14
     e8e:	df 90       	pop	r13
     e90:	cf 90       	pop	r12
     e92:	bf 90       	pop	r11
     e94:	af 90       	pop	r10
     e96:	9f 90       	pop	r9
     e98:	8f 90       	pop	r8
     e9a:	08 95       	ret
     e9c:	08 95       	ret
     e9e:	bc 01       	movw	r22, r24
     ea0:	00 97       	sbiw	r24, 0x00	; 0
     ea2:	91 f0       	breq	.+36     	;  0xec8
     ea4:	fc 01       	movw	r30, r24
     ea6:	01 90       	ld	r0, Z+
     ea8:	00 20       	and	r0, r0
     eaa:	e9 f7       	brne	.-6      	;  0xea6
     eac:	31 97       	sbiw	r30, 0x01	; 1
     eae:	af 01       	movw	r20, r30
     eb0:	48 1b       	sub	r20, r24
     eb2:	59 0b       	sbc	r21, r25
     eb4:	e0 91 87 03 	lds	r30, 0x0387	;  0x800387
     eb8:	f0 91 88 03 	lds	r31, 0x0388	;  0x800388
     ebc:	02 80       	ldd	r0, Z+2	; 0x02
     ebe:	f3 81       	ldd	r31, Z+3	; 0x03
     ec0:	e0 2d       	mov	r30, r0
     ec2:	87 e8       	ldi	r24, 0x87	; 135
     ec4:	93 e0       	ldi	r25, 0x03	; 3
     ec6:	09 94       	ijmp
     ec8:	80 e0       	ldi	r24, 0x00	; 0
     eca:	90 e0       	ldi	r25, 0x00	; 0
     ecc:	08 95       	ret
     ece:	8f 92       	push	r8
     ed0:	9f 92       	push	r9
     ed2:	af 92       	push	r10
     ed4:	bf 92       	push	r11
     ed6:	0f 93       	push	r16
     ed8:	1f 93       	push	r17
     eda:	cf 93       	push	r28
     edc:	df 93       	push	r29
     ede:	cd b7       	in	r28, 0x3d	; 61
     ee0:	de b7       	in	r29, 0x3e	; 62
     ee2:	a1 97       	sbiw	r28, 0x21	; 33
     ee4:	0f b6       	in	r0, 0x3f	; 63
     ee6:	f8 94       	cli
     ee8:	de bf       	out	0x3e, r29	; 62
     eea:	0f be       	out	0x3f, r0	; 63
     eec:	cd bf       	out	0x3d, r28	; 61
     eee:	19 a2       	std	Y+33, r1	; 0x21
     ef0:	42 30       	cpi	r20, 0x02	; 2
     ef2:	08 f4       	brcc	.+2      	;  0xef6
     ef4:	4a e0       	ldi	r20, 0x0A	; 10
     ef6:	8e 01       	movw	r16, r28
     ef8:	0f 5d       	subi	r16, 0xDF	; 223
     efa:	1f 4f       	sbci	r17, 0xFF	; 255
     efc:	84 2e       	mov	r8, r20
     efe:	91 2c       	mov	r9, r1
     f00:	a1 2c       	mov	r10, r1
     f02:	b1 2c       	mov	r11, r1
     f04:	a5 01       	movw	r20, r10
     f06:	94 01       	movw	r18, r8
     f08:	0e 94 5b 19 	call	0x32b6	;  0x32b6
     f0c:	e6 2f       	mov	r30, r22
     f0e:	b9 01       	movw	r22, r18
     f10:	ca 01       	movw	r24, r20
     f12:	01 50       	subi	r16, 0x01	; 1
     f14:	11 09       	sbc	r17, r1
     f16:	ea 30       	cpi	r30, 0x0A	; 10
     f18:	14 f4       	brge	.+4      	;  0xf1e
     f1a:	e0 5d       	subi	r30, 0xD0	; 208
     f1c:	01 c0       	rjmp	.+2      	;  0xf20
     f1e:	e9 5c       	subi	r30, 0xC9	; 201
     f20:	d8 01       	movw	r26, r16
     f22:	ec 93       	st	X, r30
     f24:	23 2b       	or	r18, r19
     f26:	24 2b       	or	r18, r20
     f28:	25 2b       	or	r18, r21
     f2a:	61 f7       	brne	.-40     	;  0xf04
     f2c:	c8 01       	movw	r24, r16
     f2e:	0e 94 4f 07 	call	0xe9e	;  0xe9e
     f32:	a1 96       	adiw	r28, 0x21	; 33
     f34:	0f b6       	in	r0, 0x3f	; 63
     f36:	f8 94       	cli
     f38:	de bf       	out	0x3e, r29	; 62
     f3a:	0f be       	out	0x3f, r0	; 63
     f3c:	cd bf       	out	0x3d, r28	; 61
     f3e:	df 91       	pop	r29
     f40:	cf 91       	pop	r28
     f42:	1f 91       	pop	r17
     f44:	0f 91       	pop	r16
     f46:	bf 90       	pop	r11
     f48:	af 90       	pop	r10
     f4a:	9f 90       	pop	r9
     f4c:	8f 90       	pop	r8
     f4e:	08 95       	ret
     f50:	1f 93       	push	r17
     f52:	cf 93       	push	r28
     f54:	df 93       	push	r29
     f56:	cd b7       	in	r28, 0x3d	; 61
     f58:	de b7       	in	r29, 0x3e	; 62
     f5a:	6e 97       	sbiw	r28, 0x1e	; 30
     f5c:	0f b6       	in	r0, 0x3f	; 63
     f5e:	f8 94       	cli
     f60:	de bf       	out	0x3e, r29	; 62
     f62:	0f be       	out	0x3f, r0	; 63
     f64:	cd bf       	out	0x3d, r28	; 61
     f66:	61 e0       	ldi	r22, 0x01	; 1
     f68:	8d e0       	ldi	r24, 0x0D	; 13
     f6a:	0e 94 96 02 	call	0x52c	;  0x52c
     f6e:	60 e0       	ldi	r22, 0x00	; 0
     f70:	85 e1       	ldi	r24, 0x15	; 21
     f72:	0e 94 96 02 	call	0x52c	;  0x52c
     f76:	60 e0       	ldi	r22, 0x00	; 0
     f78:	84 e0       	ldi	r24, 0x04	; 4
     f7a:	0e 94 96 02 	call	0x52c	;  0x52c
     f7e:	60 e0       	ldi	r22, 0x00	; 0
     f80:	83 e1       	ldi	r24, 0x13	; 19
     f82:	0e 94 96 02 	call	0x52c	;  0x52c
     f86:	61 e0       	ldi	r22, 0x01	; 1
     f88:	85 e0       	ldi	r24, 0x05	; 5
     f8a:	0e 94 96 02 	call	0x52c	;  0x52c
     f8e:	61 e0       	ldi	r22, 0x01	; 1
     f90:	8e e1       	ldi	r24, 0x1E	; 30
     f92:	0e 94 96 02 	call	0x52c	;  0x52c
     f96:	1a 82       	std	Y+2, r1	; 0x02
     f98:	18 86       	std	Y+8, r1	; 0x08
     f9a:	1f 86       	std	Y+15, r1	; 0x0f
     f9c:	18 8a       	std	Y+16, r1	; 0x10
     f9e:	19 8a       	std	Y+17, r1	; 0x11
     fa0:	1a 8a       	std	Y+18, r1	; 0x12
     fa2:	81 e0       	ldi	r24, 0x01	; 1
     fa4:	8e 87       	std	Y+14, r24	; 0x0e
     fa6:	8b 87       	std	Y+11, r24	; 0x0b
     fa8:	1c 86       	std	Y+12, r1	; 0x0c
     faa:	92 e0       	ldi	r25, 0x02	; 2
     fac:	9d 87       	std	Y+13, r25	; 0x0d
     fae:	89 83       	std	Y+1, r24	; 0x01
     fb0:	8e e1       	ldi	r24, 0x1E	; 30
     fb2:	90 e0       	ldi	r25, 0x00	; 0
     fb4:	9e 83       	std	Y+6, r25	; 0x06
     fb6:	8d 83       	std	Y+5, r24	; 0x05
     fb8:	0e 94 79 1c 	call	0x38f2	;  0x38f2
     fbc:	9a 87       	std	Y+10, r25	; 0x0a
     fbe:	89 87       	std	Y+9, r24	; 0x09
     fc0:	00 97       	sbiw	r24, 0x00	; 0
     fc2:	51 f0       	breq	.+20     	;  0xfd8
     fc4:	2e e1       	ldi	r18, 0x1E	; 30
     fc6:	fc 01       	movw	r30, r24
     fc8:	11 92       	st	Z+, r1
     fca:	2a 95       	dec	r18
     fcc:	e9 f7       	brne	.-6      	;  0xfc8
     fce:	8a e0       	ldi	r24, 0x0A	; 10
     fd0:	90 e0       	ldi	r25, 0x00	; 0
     fd2:	9c 83       	std	Y+4, r25	; 0x04
     fd4:	8b 83       	std	Y+3, r24	; 0x03
     fd6:	04 c0       	rjmp	.+8      	;  0xfe0
     fd8:	1e 82       	std	Y+6, r1	; 0x06
     fda:	1d 82       	std	Y+5, r1	; 0x05
     fdc:	1c 82       	std	Y+4, r1	; 0x04
     fde:	1b 82       	std	Y+3, r1	; 0x03
     fe0:	81 e1       	ldi	r24, 0x11	; 17
     fe2:	8f 83       	std	Y+7, r24	; 0x07
     fe4:	8a 81       	ldd	r24, Y+2	; 0x02
     fe6:	88 23       	and	r24, r24
     fe8:	41 f0       	breq	.+16     	;  0xffa
     fea:	61 e0       	ldi	r22, 0x01	; 1
     fec:	81 e1       	ldi	r24, 0x11	; 17
     fee:	0e 94 96 02 	call	0x52c	;  0x52c
     ff2:	60 e0       	ldi	r22, 0x00	; 0
     ff4:	81 e1       	ldi	r24, 0x11	; 17
     ff6:	0e 94 66 02 	call	0x4cc	;  0x4cc
     ffa:	ed e7       	ldi	r30, 0x7D	; 125
     ffc:	f1 e0       	ldi	r31, 0x01	; 1
     ffe:	e4 91       	lpm	r30, Z
    1000:	f0 e0       	ldi	r31, 0x00	; 0
    1002:	ee 0f       	add	r30, r30
    1004:	ff 1f       	adc	r31, r31
    1006:	e2 5a       	subi	r30, 0xA2	; 162
    1008:	fe 4f       	sbci	r31, 0xFE	; 254
    100a:	85 91       	lpm	r24, Z+
    100c:	94 91       	lpm	r25, Z
    100e:	9c 8b       	std	Y+20, r25	; 0x14
    1010:	8b 8b       	std	Y+19, r24	; 0x13
    1012:	e0 e5       	ldi	r30, 0x50	; 80
    1014:	f1 e0       	ldi	r31, 0x01	; 1
    1016:	e4 91       	lpm	r30, Z
    1018:	ed 8b       	std	Y+21, r30	; 0x15
    101a:	85 e1       	ldi	r24, 0x15	; 21
    101c:	fe 01       	movw	r30, r28
    101e:	31 96       	adiw	r30, 0x01	; 1
    1020:	a3 ee       	ldi	r26, 0xE3	; 227
    1022:	b3 e0       	ldi	r27, 0x03	; 3
    1024:	01 90       	ld	r0, Z+
    1026:	0d 92       	st	X+, r0
    1028:	8a 95       	dec	r24
    102a:	e1 f7       	brne	.-8      	;  0x1024
    102c:	ce 01       	movw	r24, r28
    102e:	01 96       	adiw	r24, 0x01	; 1
    1030:	0e 94 4c 05 	call	0xa98	;  0xa98
    1034:	8b 81       	ldd	r24, Y+3	; 0x03
    1036:	80 93 fa 03 	sts	0x03FA, r24	;  0x8003fa
    103a:	8c 81       	ldd	r24, Y+4	; 0x04
    103c:	9d 81       	ldd	r25, Y+5	; 0x05
    103e:	90 93 fc 03 	sts	0x03FC, r25	;  0x8003fc
    1042:	80 93 fb 03 	sts	0x03FB, r24	;  0x8003fb
    1046:	8e 81       	ldd	r24, Y+6	; 0x06
    1048:	9f 81       	ldd	r25, Y+7	; 0x07
    104a:	90 93 fe 03 	sts	0x03FE, r25	;  0x8003fe
    104e:	80 93 fd 03 	sts	0x03FD, r24	;  0x8003fd
    1052:	88 85       	ldd	r24, Y+8	; 0x08
    1054:	99 85       	ldd	r25, Y+9	; 0x09
    1056:	90 93 00 04 	sts	0x0400, r25	;  0x800400
    105a:	80 93 ff 03 	sts	0x03FF, r24	;  0x8003ff
    105e:	8a 85       	ldd	r24, Y+10	; 0x0a
    1060:	9b 85       	ldd	r25, Y+11	; 0x0b
    1062:	ac 85       	ldd	r26, Y+12	; 0x0c
    1064:	bd 85       	ldd	r27, Y+13	; 0x0d
    1066:	80 93 01 04 	sts	0x0401, r24	;  0x800401
    106a:	90 93 02 04 	sts	0x0402, r25	;  0x800402
    106e:	a0 93 03 04 	sts	0x0403, r26	;  0x800403
    1072:	b0 93 04 04 	sts	0x0404, r27	;  0x800404
    1076:	8e 85       	ldd	r24, Y+14	; 0x0e
    1078:	9f 85       	ldd	r25, Y+15	; 0x0f
    107a:	a8 89       	ldd	r26, Y+16	; 0x10
    107c:	b9 89       	ldd	r27, Y+17	; 0x11
    107e:	80 93 05 04 	sts	0x0405, r24	;  0x800405
    1082:	90 93 06 04 	sts	0x0406, r25	;  0x800406
    1086:	a0 93 07 04 	sts	0x0407, r26	;  0x800407
    108a:	b0 93 08 04 	sts	0x0408, r27	;  0x800408
    108e:	8a 89       	ldd	r24, Y+18	; 0x12
    1090:	9b 89       	ldd	r25, Y+19	; 0x13
    1092:	ac 89       	ldd	r26, Y+20	; 0x14
    1094:	bd 89       	ldd	r27, Y+21	; 0x15
    1096:	80 93 09 04 	sts	0x0409, r24	;  0x800409
    109a:	90 93 0a 04 	sts	0x040A, r25	;  0x80040a
    109e:	a0 93 0b 04 	sts	0x040B, r26	;  0x80040b
    10a2:	b0 93 0c 04 	sts	0x040C, r27	;  0x80040c
    10a6:	8f ef       	ldi	r24, 0xFF	; 255
    10a8:	9f ef       	ldi	r25, 0xFF	; 255
    10aa:	dc 01       	movw	r26, r24
    10ac:	80 93 0d 04 	sts	0x040D, r24	;  0x80040d
    10b0:	90 93 0e 04 	sts	0x040E, r25	;  0x80040e
    10b4:	a0 93 0f 04 	sts	0x040F, r26	;  0x80040f
    10b8:	b0 93 10 04 	sts	0x0410, r27	;  0x800410
    10bc:	8a 8d       	ldd	r24, Y+26	; 0x1a
    10be:	80 93 11 04 	sts	0x0411, r24	;  0x800411
    10c2:	88 e0       	ldi	r24, 0x08	; 8
    10c4:	80 93 12 04 	sts	0x0412, r24	;  0x800412
    10c8:	8f ef       	ldi	r24, 0xFF	; 255
    10ca:	80 93 13 04 	sts	0x0413, r24	;  0x800413
    10ce:	80 93 14 04 	sts	0x0414, r24	;  0x800414
    10d2:	80 93 15 04 	sts	0x0415, r24	;  0x800415
    10d6:	80 91 e9 03 	lds	r24, 0x03E9	;  0x8003e9
    10da:	87 fd       	sbrc	r24, 7
    10dc:	08 c0       	rjmp	.+16     	;  0x10ee
    10de:	61 e0       	ldi	r22, 0x01	; 1
    10e0:	0e 94 96 02 	call	0x52c	;  0x52c
    10e4:	60 e0       	ldi	r22, 0x00	; 0
    10e6:	80 91 e9 03 	lds	r24, 0x03E9	;  0x8003e9
    10ea:	0e 94 66 02 	call	0x4cc	;  0x4cc
    10ee:	81 e0       	ldi	r24, 0x01	; 1
    10f0:	80 93 e4 03 	sts	0x03E4, r24	;  0x8003e4
    10f4:	0e 94 a0 11 	call	0x2340	;  0x2340
    10f8:	60 91 ea 03 	lds	r22, 0x03EA	;  0x8003ea
    10fc:	65 31       	cpi	r22, 0x15	; 21
    10fe:	21 f1       	breq	.+72     	;  0x1148
    1100:	20 91 eb 03 	lds	r18, 0x03EB	;  0x8003eb
    1104:	30 91 ec 03 	lds	r19, 0x03EC	;  0x8003ec
    1108:	61 50       	subi	r22, 0x01	; 1
    110a:	31 f0       	breq	.+12     	;  0x1118
    110c:	70 e0       	ldi	r23, 0x00	; 0
    110e:	8f ef       	ldi	r24, 0xFF	; 255
    1110:	94 e1       	ldi	r25, 0x14	; 20
    1112:	0e 94 47 19 	call	0x328e	;  0x328e
    1116:	02 c0       	rjmp	.+4      	;  0x111c
    1118:	60 e0       	ldi	r22, 0x00	; 0
    111a:	70 e0       	ldi	r23, 0x00	; 0
    111c:	f9 01       	movw	r30, r18
    111e:	40 91 e7 03 	lds	r20, 0x03E7	;  0x8003e7
    1122:	50 91 e8 03 	lds	r21, 0x03E8	;  0x8003e8
    1126:	cf 01       	movw	r24, r30
    1128:	82 1b       	sub	r24, r18
    112a:	93 0b       	sbc	r25, r19
    112c:	84 17       	cp	r24, r20
    112e:	95 07       	cpc	r25, r21
    1130:	40 f4       	brcc	.+16     	;  0x1142
    1132:	40 81       	ld	r20, Z
    1134:	46 9f       	mul	r20, r22
    1136:	c0 01       	movw	r24, r0
    1138:	47 9f       	mul	r20, r23
    113a:	90 0d       	add	r25, r0
    113c:	11 24       	eor	r1, r1
    113e:	91 93       	st	Z+, r25
    1140:	ee cf       	rjmp	.-36     	;  0x111e
    1142:	85 e1       	ldi	r24, 0x15	; 21
    1144:	80 93 ea 03 	sts	0x03EA, r24	;  0x8003ea
    1148:	40 e0       	ldi	r20, 0x00	; 0
    114a:	6e e1       	ldi	r22, 0x1E	; 30
    114c:	ce 01       	movw	r24, r28
    114e:	01 96       	adiw	r24, 0x01	; 1
    1150:	0e 94 d1 04 	call	0x9a2	;  0x9a2
    1154:	8e e1       	ldi	r24, 0x1E	; 30
    1156:	fe 01       	movw	r30, r28
    1158:	31 96       	adiw	r30, 0x01	; 1
    115a:	a8 e1       	ldi	r26, 0x18	; 24
    115c:	b4 e0       	ldi	r27, 0x04	; 4
    115e:	01 90       	ld	r0, Z+
    1160:	0d 92       	st	X+, r0
    1162:	8a 95       	dec	r24
    1164:	e1 f7       	brne	.-8      	;  0x115e
    1166:	41 e0       	ldi	r20, 0x01	; 1
    1168:	6e e1       	ldi	r22, 0x1E	; 30
    116a:	ce 01       	movw	r24, r28
    116c:	01 96       	adiw	r24, 0x01	; 1
    116e:	0e 94 d1 04 	call	0x9a2	;  0x9a2
    1172:	8e e1       	ldi	r24, 0x1E	; 30
    1174:	fe 01       	movw	r30, r28
    1176:	31 96       	adiw	r30, 0x01	; 1
    1178:	a6 e3       	ldi	r26, 0x36	; 54
    117a:	b4 e0       	ldi	r27, 0x04	; 4
    117c:	01 90       	ld	r0, Z+
    117e:	0d 92       	st	X+, r0
    1180:	8a 95       	dec	r24
    1182:	e1 f7       	brne	.-8      	;  0x117c
    1184:	42 e0       	ldi	r20, 0x02	; 2
    1186:	6e e1       	ldi	r22, 0x1E	; 30
    1188:	ce 01       	movw	r24, r28
    118a:	01 96       	adiw	r24, 0x01	; 1
    118c:	0e 94 d1 04 	call	0x9a2	;  0x9a2
    1190:	8e e1       	ldi	r24, 0x1E	; 30
    1192:	fe 01       	movw	r30, r28
    1194:	31 96       	adiw	r30, 0x01	; 1
    1196:	a4 e5       	ldi	r26, 0x54	; 84
    1198:	b4 e0       	ldi	r27, 0x04	; 4
    119a:	01 90       	ld	r0, Z+
    119c:	0d 92       	st	X+, r0
    119e:	8a 95       	dec	r24
    11a0:	e1 f7       	brne	.-8      	;  0x119a
    11a2:	43 e0       	ldi	r20, 0x03	; 3
    11a4:	6e e1       	ldi	r22, 0x1E	; 30
    11a6:	ce 01       	movw	r24, r28
    11a8:	01 96       	adiw	r24, 0x01	; 1
    11aa:	0e 94 d1 04 	call	0x9a2	;  0x9a2
    11ae:	8e e1       	ldi	r24, 0x1E	; 30
    11b0:	fe 01       	movw	r30, r28
    11b2:	31 96       	adiw	r30, 0x01	; 1
    11b4:	a2 e7       	ldi	r26, 0x72	; 114
    11b6:	b4 e0       	ldi	r27, 0x04	; 4
    11b8:	01 90       	ld	r0, Z+
    11ba:	0d 92       	st	X+, r0
    11bc:	8a 95       	dec	r24
    11be:	e1 f7       	brne	.-8      	;  0x11b8
    11c0:	46 e0       	ldi	r20, 0x06	; 6
    11c2:	6e e1       	ldi	r22, 0x1E	; 30
    11c4:	ce 01       	movw	r24, r28
    11c6:	01 96       	adiw	r24, 0x01	; 1
    11c8:	0e 94 d1 04 	call	0x9a2	;  0x9a2
    11cc:	8e e1       	ldi	r24, 0x1E	; 30
    11ce:	fe 01       	movw	r30, r28
    11d0:	31 96       	adiw	r30, 0x01	; 1
    11d2:	a0 e9       	ldi	r26, 0x90	; 144
    11d4:	b4 e0       	ldi	r27, 0x04	; 4
    11d6:	01 90       	ld	r0, Z+
    11d8:	0d 92       	st	X+, r0
    11da:	8a 95       	dec	r24
    11dc:	e1 f7       	brne	.-8      	;  0x11d6
    11de:	49 e0       	ldi	r20, 0x09	; 9
    11e0:	6e e1       	ldi	r22, 0x1E	; 30
    11e2:	ce 01       	movw	r24, r28
    11e4:	01 96       	adiw	r24, 0x01	; 1
    11e6:	0e 94 d1 04 	call	0x9a2	;  0x9a2
    11ea:	8e e1       	ldi	r24, 0x1E	; 30
    11ec:	fe 01       	movw	r30, r28
    11ee:	31 96       	adiw	r30, 0x01	; 1
    11f0:	ae ea       	ldi	r26, 0xAE	; 174
    11f2:	b4 e0       	ldi	r27, 0x04	; 4
    11f4:	01 90       	ld	r0, Z+
    11f6:	0d 92       	st	X+, r0
    11f8:	8a 95       	dec	r24
    11fa:	e1 f7       	brne	.-8      	;  0x11f4
    11fc:	4a e0       	ldi	r20, 0x0A	; 10
    11fe:	6e e1       	ldi	r22, 0x1E	; 30
    1200:	ce 01       	movw	r24, r28
    1202:	01 96       	adiw	r24, 0x01	; 1
    1204:	0e 94 d1 04 	call	0x9a2	;  0x9a2
    1208:	8e e1       	ldi	r24, 0x1E	; 30
    120a:	fe 01       	movw	r30, r28
    120c:	31 96       	adiw	r30, 0x01	; 1
    120e:	ac ec       	ldi	r26, 0xCC	; 204
    1210:	b4 e0       	ldi	r27, 0x04	; 4
    1212:	01 90       	ld	r0, Z+
    1214:	0d 92       	st	X+, r0
    1216:	8a 95       	dec	r24
    1218:	e1 f7       	brne	.-8      	;  0x1212
    121a:	4c e0       	ldi	r20, 0x0C	; 12
    121c:	6e e1       	ldi	r22, 0x1E	; 30
    121e:	ce 01       	movw	r24, r28
    1220:	01 96       	adiw	r24, 0x01	; 1
    1222:	0e 94 d1 04 	call	0x9a2	;  0x9a2
    1226:	8e e1       	ldi	r24, 0x1E	; 30
    1228:	fe 01       	movw	r30, r28
    122a:	31 96       	adiw	r30, 0x01	; 1
    122c:	aa ee       	ldi	r26, 0xEA	; 234
    122e:	b4 e0       	ldi	r27, 0x04	; 4
    1230:	01 90       	ld	r0, Z+
    1232:	0d 92       	st	X+, r0
    1234:	8a 95       	dec	r24
    1236:	e1 f7       	brne	.-8      	;  0x1230
    1238:	88 e1       	ldi	r24, 0x18	; 24
    123a:	80 93 11 04 	sts	0x0411, r24	;  0x800411
    123e:	80 91 12 04 	lds	r24, 0x0412	;  0x800412
    1242:	8f 3f       	cpi	r24, 0xFF	; 255
    1244:	41 f5       	brne	.+80     	;  0x1296
    1246:	10 92 1b 03 	sts	0x031B, r1	;  0x80031b
    124a:	10 92 1a 03 	sts	0x031A, r1	;  0x80031a
    124e:	10 92 64 03 	sts	0x0364, r1	;  0x800364
    1252:	10 92 86 03 	sts	0x0386, r1	;  0x800386
    1256:	10 92 62 03 	sts	0x0362, r1	;  0x800362
    125a:	81 e0       	ldi	r24, 0x01	; 1
    125c:	80 93 61 03 	sts	0x0361, r24	;  0x800361
    1260:	10 92 3c 03 	sts	0x033C, r1	;  0x80033c
    1264:	61 e0       	ldi	r22, 0x01	; 1
    1266:	82 e0       	ldi	r24, 0x02	; 2
    1268:	0e 94 66 02 	call	0x4cc	;  0x4cc
    126c:	61 e0       	ldi	r22, 0x01	; 1
    126e:	83 e0       	ldi	r24, 0x03	; 3
    1270:	0e 94 66 02 	call	0x4cc	;  0x4cc
    1274:	80 91 b9 00 	lds	r24, 0x00B9	;  0x8000b9
    1278:	8e 7f       	andi	r24, 0xFE	; 254
    127a:	80 93 b9 00 	sts	0x00B9, r24	;  0x8000b9
    127e:	80 91 b9 00 	lds	r24, 0x00B9	;  0x8000b9
    1282:	8d 7f       	andi	r24, 0xFD	; 253
    1284:	80 93 b9 00 	sts	0x00B9, r24	;  0x8000b9
    1288:	80 e2       	ldi	r24, 0x20	; 32
    128a:	80 93 b8 00 	sts	0x00B8, r24	;  0x8000b8
    128e:	85 e4       	ldi	r24, 0x45	; 69
    1290:	80 93 bc 00 	sts	0x00BC, r24	;  0x8000bc
    1294:	4e c0       	rjmp	.+156    	;  0x1332
    1296:	61 e0       	ldi	r22, 0x01	; 1
    1298:	0e 94 66 02 	call	0x4cc	;  0x4cc
    129c:	61 e0       	ldi	r22, 0x01	; 1
    129e:	80 91 12 04 	lds	r24, 0x0412	;  0x800412
    12a2:	0e 94 96 02 	call	0x52c	;  0x52c
    12a6:	80 91 15 04 	lds	r24, 0x0415	;  0x800415
    12aa:	8f 3f       	cpi	r24, 0xFF	; 255
    12ac:	09 f0       	breq	.+2      	;  0x12b0
    12ae:	34 c0       	rjmp	.+104    	;  0x1318
    12b0:	1f b7       	in	r17, 0x3f	; 63
    12b2:	f8 94       	cli
    12b4:	80 91 13 03 	lds	r24, 0x0313	;  0x800313
    12b8:	81 11       	cpse	r24, r1
    12ba:	27 c0       	rjmp	.+78     	;  0x130a
    12bc:	ed e7       	ldi	r30, 0x7D	; 125
    12be:	f1 e0       	ldi	r31, 0x01	; 1
    12c0:	84 91       	lpm	r24, Z
    12c2:	e0 e5       	ldi	r30, 0x50	; 80
    12c4:	f1 e0       	ldi	r31, 0x01	; 1
    12c6:	94 91       	lpm	r25, Z
    12c8:	e8 2f       	mov	r30, r24
    12ca:	f0 e0       	ldi	r31, 0x00	; 0
    12cc:	ee 0f       	add	r30, r30
    12ce:	ff 1f       	adc	r31, r31
    12d0:	ef 5c       	subi	r30, 0xCF	; 207
    12d2:	fe 4f       	sbci	r31, 0xFE	; 254
    12d4:	a5 91       	lpm	r26, Z+
    12d6:	b4 91       	lpm	r27, Z
    12d8:	ec 91       	ld	r30, X
    12da:	e9 23       	and	r30, r25
    12dc:	21 f4       	brne	.+8      	;  0x12e6
    12de:	61 e0       	ldi	r22, 0x01	; 1
    12e0:	81 e1       	ldi	r24, 0x11	; 17
    12e2:	0e 94 66 02 	call	0x4cc	;  0x4cc
    12e6:	61 e0       	ldi	r22, 0x01	; 1
    12e8:	81 e1       	ldi	r24, 0x11	; 17
    12ea:	0e 94 96 02 	call	0x52c	;  0x52c
    12ee:	8c b5       	in	r24, 0x2c	; 44
    12f0:	80 61       	ori	r24, 0x10	; 16
    12f2:	8c bd       	out	0x2c, r24	; 44
    12f4:	8c b5       	in	r24, 0x2c	; 44
    12f6:	80 64       	ori	r24, 0x40	; 64
    12f8:	8c bd       	out	0x2c, r24	; 44
    12fa:	61 e0       	ldi	r22, 0x01	; 1
    12fc:	8f e0       	ldi	r24, 0x0F	; 15
    12fe:	0e 94 96 02 	call	0x52c	;  0x52c
    1302:	61 e0       	ldi	r22, 0x01	; 1
    1304:	80 e1       	ldi	r24, 0x10	; 16
    1306:	0e 94 96 02 	call	0x52c	;  0x52c
    130a:	80 91 13 03 	lds	r24, 0x0313	;  0x800313
    130e:	8f 5f       	subi	r24, 0xFF	; 255
    1310:	80 93 13 03 	sts	0x0313, r24	;  0x800313
    1314:	1f bf       	out	0x3f, r17	; 63
    1316:	0d c0       	rjmp	.+26     	;  0x1332
    1318:	61 e0       	ldi	r22, 0x01	; 1
    131a:	0e 94 96 02 	call	0x52c	;  0x52c
    131e:	61 e0       	ldi	r22, 0x01	; 1
    1320:	80 91 13 04 	lds	r24, 0x0413	;  0x800413
    1324:	0e 94 96 02 	call	0x52c	;  0x52c
    1328:	60 e0       	ldi	r22, 0x00	; 0
    132a:	80 91 14 04 	lds	r24, 0x0414	;  0x800414
    132e:	0e 94 96 02 	call	0x52c	;  0x52c
    1332:	6f e0       	ldi	r22, 0x0F	; 15
    1334:	88 ef       	ldi	r24, 0xF8	; 248
    1336:	93 e0       	ldi	r25, 0x03	; 3
    1338:	0e 94 ab 05 	call	0xb56	;  0xb56
    133c:	83 33       	cpi	r24, 0x33	; 51
    133e:	e9 f4       	brne	.+58     	;  0x137a
    1340:	67 e0       	ldi	r22, 0x07	; 7
    1342:	80 e2       	ldi	r24, 0x20	; 32
    1344:	0e 94 39 13 	call	0x2672	;  0x2672
    1348:	60 e2       	ldi	r22, 0x20	; 32
    134a:	88 ef       	ldi	r24, 0xF8	; 248
    134c:	93 e0       	ldi	r25, 0x03	; 3
    134e:	0e 94 ab 05 	call	0xb56	;  0xb56
    1352:	8f 70       	andi	r24, 0x0F	; 15
    1354:	68 2f       	mov	r22, r24
    1356:	60 67       	ori	r22, 0x70	; 112
    1358:	80 e2       	ldi	r24, 0x20	; 32
    135a:	0e 94 39 13 	call	0x2672	;  0x2672
    135e:	68 e8       	ldi	r22, 0x88	; 136
    1360:	83 e2       	ldi	r24, 0x23	; 35
    1362:	0e 94 39 13 	call	0x2672	;  0x2672
    1366:	60 e1       	ldi	r22, 0x10	; 16
    1368:	82 e2       	ldi	r24, 0x22	; 34
    136a:	0e 94 39 13 	call	0x2672	;  0x2672
    136e:	60 e8       	ldi	r22, 0x80	; 128
    1370:	8f e1       	ldi	r24, 0x1F	; 31
    1372:	0e 94 39 13 	call	0x2672	;  0x2672
    1376:	81 e0       	ldi	r24, 0x01	; 1
    1378:	01 c0       	rjmp	.+2      	;  0x137c
    137a:	80 e0       	ldi	r24, 0x00	; 0
    137c:	6e 96       	adiw	r28, 0x1e	; 30
    137e:	0f b6       	in	r0, 0x3f	; 63
    1380:	f8 94       	cli
    1382:	de bf       	out	0x3e, r29	; 62
    1384:	0f be       	out	0x3f, r0	; 63
    1386:	cd bf       	out	0x3d, r28	; 61
    1388:	df 91       	pop	r29
    138a:	cf 91       	pop	r28
    138c:	1f 91       	pop	r17
    138e:	08 95       	ret
    1390:	cf 93       	push	r28
    1392:	df 93       	push	r29
    1394:	0e 94 4f 07 	call	0xe9e	;  0xe9e
    1398:	ec 01       	movw	r28, r24
    139a:	8e e7       	ldi	r24, 0x7E	; 126
    139c:	92 e0       	ldi	r25, 0x02	; 2
    139e:	0e 94 4f 07 	call	0xe9e	;  0xe9e
    13a2:	8c 0f       	add	r24, r28
    13a4:	9d 1f       	adc	r25, r29
    13a6:	df 91       	pop	r29
    13a8:	cf 91       	pop	r28
    13aa:	08 95       	ret
    13ac:	8f 92       	push	r8
    13ae:	9f 92       	push	r9
    13b0:	af 92       	push	r10
    13b2:	bf 92       	push	r11
    13b4:	cf 92       	push	r12
    13b6:	df 92       	push	r13
    13b8:	ef 92       	push	r14
    13ba:	ff 92       	push	r15
    13bc:	cf 93       	push	r28
    13be:	df 93       	push	r29
    13c0:	6b 01       	movw	r12, r22
    13c2:	7c 01       	movw	r14, r24
    13c4:	9b 01       	movw	r18, r22
    13c6:	ac 01       	movw	r20, r24
    13c8:	0e 94 3f 1c 	call	0x387e	;  0x387e
    13cc:	88 23       	and	r24, r24
    13ce:	19 f0       	breq	.+6      	;  0x13d6
    13d0:	81 e8       	ldi	r24, 0x81	; 129
    13d2:	92 e0       	ldi	r25, 0x02	; 2
    13d4:	27 c0       	rjmp	.+78     	;  0x1424
    13d6:	46 01       	movw	r8, r12
    13d8:	57 01       	movw	r10, r14
    13da:	e8 94       	clt
    13dc:	b7 f8       	bld	r11, 7
    13de:	2f ef       	ldi	r18, 0xFF	; 255
    13e0:	3f ef       	ldi	r19, 0xFF	; 255
    13e2:	4f e7       	ldi	r20, 0x7F	; 127
    13e4:	5f e7       	ldi	r21, 0x7F	; 127
    13e6:	c5 01       	movw	r24, r10
    13e8:	b4 01       	movw	r22, r8
    13ea:	0e 94 3f 1c 	call	0x387e	;  0x387e
    13ee:	81 11       	cpse	r24, r1
    13f0:	0d c0       	rjmp	.+26     	;  0x140c
    13f2:	2f ef       	ldi	r18, 0xFF	; 255
    13f4:	3f ef       	ldi	r19, 0xFF	; 255
    13f6:	4f e7       	ldi	r20, 0x7F	; 127
    13f8:	5f e7       	ldi	r21, 0x7F	; 127
    13fa:	c5 01       	movw	r24, r10
    13fc:	b4 01       	movw	r22, r8
    13fe:	0e 94 1e 1a 	call	0x343c	;  0x343c
    1402:	18 16       	cp	r1, r24
    1404:	1c f4       	brge	.+6      	;  0x140c
    1406:	85 e8       	ldi	r24, 0x85	; 133
    1408:	92 e0       	ldi	r25, 0x02	; 2
    140a:	0c c0       	rjmp	.+24     	;  0x1424
    140c:	2f ef       	ldi	r18, 0xFF	; 255
    140e:	3f ef       	ldi	r19, 0xFF	; 255
    1410:	4f e7       	ldi	r20, 0x7F	; 127
    1412:	5f e4       	ldi	r21, 0x4F	; 79
    1414:	c7 01       	movw	r24, r14
    1416:	b6 01       	movw	r22, r12
    1418:	0e 94 7d 1b 	call	0x36fa	;  0x36fa
    141c:	18 16       	cp	r1, r24
    141e:	74 f4       	brge	.+28     	;  0x143c
    1420:	89 e8       	ldi	r24, 0x89	; 137
    1422:	92 e0       	ldi	r25, 0x02	; 2
    1424:	df 91       	pop	r29
    1426:	cf 91       	pop	r28
    1428:	ff 90       	pop	r15
    142a:	ef 90       	pop	r14
    142c:	df 90       	pop	r13
    142e:	cf 90       	pop	r12
    1430:	bf 90       	pop	r11
    1432:	af 90       	pop	r10
    1434:	9f 90       	pop	r9
    1436:	8f 90       	pop	r8
    1438:	0c 94 4f 07 	jmp	0xe9e	;  0xe9e
    143c:	2f ef       	ldi	r18, 0xFF	; 255
    143e:	3f ef       	ldi	r19, 0xFF	; 255
    1440:	4f e7       	ldi	r20, 0x7F	; 127
    1442:	5f ec       	ldi	r21, 0xCF	; 207
    1444:	c7 01       	movw	r24, r14
    1446:	b6 01       	movw	r22, r12
    1448:	0e 94 1e 1a 	call	0x343c	;  0x343c
    144c:	87 fd       	sbrc	r24, 7
    144e:	e8 cf       	rjmp	.-48     	;  0x1420
    1450:	20 e0       	ldi	r18, 0x00	; 0
    1452:	30 e0       	ldi	r19, 0x00	; 0
    1454:	a9 01       	movw	r20, r18
    1456:	c7 01       	movw	r24, r14
    1458:	b6 01       	movw	r22, r12
    145a:	0e 94 1e 1a 	call	0x343c	;  0x343c
    145e:	87 ff       	sbrs	r24, 7
    1460:	11 c0       	rjmp	.+34     	;  0x1484
    1462:	e0 91 87 03 	lds	r30, 0x0387	;  0x800387
    1466:	f0 91 88 03 	lds	r31, 0x0388	;  0x800388
    146a:	01 90       	ld	r0, Z+
    146c:	f0 81       	ld	r31, Z
    146e:	e0 2d       	mov	r30, r0
    1470:	6d e2       	ldi	r22, 0x2D	; 45
    1472:	87 e8       	ldi	r24, 0x87	; 135
    1474:	93 e0       	ldi	r25, 0x03	; 3
    1476:	09 95       	icall
    1478:	ec 01       	movw	r28, r24
    147a:	f7 fa       	bst	r15, 7
    147c:	f0 94       	com	r15
    147e:	f7 f8       	bld	r15, 7
    1480:	f0 94       	com	r15
    1482:	02 c0       	rjmp	.+4      	;  0x1488
    1484:	c0 e0       	ldi	r28, 0x00	; 0
    1486:	d0 e0       	ldi	r29, 0x00	; 0
    1488:	2a e0       	ldi	r18, 0x0A	; 10
    148a:	37 ed       	ldi	r19, 0xD7	; 215
    148c:	43 ea       	ldi	r20, 0xA3	; 163
    148e:	5b e3       	ldi	r21, 0x3B	; 59
    1490:	c7 01       	movw	r24, r14
    1492:	b6 01       	movw	r22, r12
    1494:	0e 94 b2 19 	call	0x3364	;  0x3364
    1498:	4b 01       	movw	r8, r22
    149a:	5c 01       	movw	r10, r24
    149c:	0e 94 9c 1a 	call	0x3538	;  0x3538
    14a0:	6b 01       	movw	r12, r22
    14a2:	7c 01       	movw	r14, r24
    14a4:	0e 94 cb 1a 	call	0x3596	;  0x3596
    14a8:	9b 01       	movw	r18, r22
    14aa:	ac 01       	movw	r20, r24
    14ac:	c5 01       	movw	r24, r10
    14ae:	b4 01       	movw	r22, r8
    14b0:	0e 94 b1 19 	call	0x3362	;  0x3362
    14b4:	4b 01       	movw	r8, r22
    14b6:	5c 01       	movw	r10, r24
    14b8:	4a e0       	ldi	r20, 0x0A	; 10
    14ba:	c7 01       	movw	r24, r14
    14bc:	b6 01       	movw	r22, r12
    14be:	0e 94 67 07 	call	0xece	;  0xece
    14c2:	c8 0f       	add	r28, r24
    14c4:	d9 1f       	adc	r29, r25
    14c6:	8d e8       	ldi	r24, 0x8D	; 141
    14c8:	92 e0       	ldi	r25, 0x02	; 2
    14ca:	0e 94 4f 07 	call	0xe9e	;  0xe9e
    14ce:	c8 0f       	add	r28, r24
    14d0:	d9 1f       	adc	r29, r25
    14d2:	20 e0       	ldi	r18, 0x00	; 0
    14d4:	30 e0       	ldi	r19, 0x00	; 0
    14d6:	40 e2       	ldi	r20, 0x20	; 32
    14d8:	51 e4       	ldi	r21, 0x41	; 65
    14da:	c5 01       	movw	r24, r10
    14dc:	b4 01       	movw	r22, r8
    14de:	0e 94 d2 1b 	call	0x37a4	;  0x37a4
    14e2:	4b 01       	movw	r8, r22
    14e4:	5c 01       	movw	r10, r24
    14e6:	0e 94 9c 1a 	call	0x3538	;  0x3538
    14ea:	6b 01       	movw	r12, r22
    14ec:	e1 2c       	mov	r14, r1
    14ee:	f1 2c       	mov	r15, r1
    14f0:	4a e0       	ldi	r20, 0x0A	; 10
    14f2:	c7 01       	movw	r24, r14
    14f4:	b6 01       	movw	r22, r12
    14f6:	0e 94 67 07 	call	0xece	;  0xece
    14fa:	c8 0f       	add	r28, r24
    14fc:	d9 1f       	adc	r29, r25
    14fe:	c7 01       	movw	r24, r14
    1500:	b6 01       	movw	r22, r12
    1502:	0e 94 cb 1a 	call	0x3596	;  0x3596
    1506:	9b 01       	movw	r18, r22
    1508:	ac 01       	movw	r20, r24
    150a:	c5 01       	movw	r24, r10
    150c:	b4 01       	movw	r22, r8
    150e:	0e 94 b1 19 	call	0x3362	;  0x3362
    1512:	20 e0       	ldi	r18, 0x00	; 0
    1514:	30 e0       	ldi	r19, 0x00	; 0
    1516:	40 e2       	ldi	r20, 0x20	; 32
    1518:	51 e4       	ldi	r21, 0x41	; 65
    151a:	0e 94 d2 1b 	call	0x37a4	;  0x37a4
    151e:	0e 94 9c 1a 	call	0x3538	;  0x3538
    1522:	80 e0       	ldi	r24, 0x00	; 0
    1524:	90 e0       	ldi	r25, 0x00	; 0
    1526:	4a e0       	ldi	r20, 0x0A	; 10
    1528:	0e 94 67 07 	call	0xece	;  0xece
    152c:	8c 0f       	add	r24, r28
    152e:	9d 1f       	adc	r25, r29
    1530:	df 91       	pop	r29
    1532:	cf 91       	pop	r28
    1534:	ff 90       	pop	r15
    1536:	ef 90       	pop	r14
    1538:	df 90       	pop	r13
    153a:	cf 90       	pop	r12
    153c:	bf 90       	pop	r11
    153e:	af 90       	pop	r10
    1540:	9f 90       	pop	r9
    1542:	8f 90       	pop	r8
    1544:	08 95       	ret
    1546:	0c 94 4f 07 	jmp	0xe9e	;  0xe9e
    154a:	cf 93       	push	r28
    154c:	df 93       	push	r29
    154e:	bc 01       	movw	r22, r24
    1550:	80 e0       	ldi	r24, 0x00	; 0
    1552:	90 e0       	ldi	r25, 0x00	; 0
    1554:	4a e0       	ldi	r20, 0x0A	; 10
    1556:	0e 94 67 07 	call	0xece	;  0xece
    155a:	ec 01       	movw	r28, r24
    155c:	8e e7       	ldi	r24, 0x7E	; 126
    155e:	92 e0       	ldi	r25, 0x02	; 2
    1560:	0e 94 4f 07 	call	0xe9e	;  0xe9e
    1564:	8c 0f       	add	r24, r28
    1566:	9d 1f       	adc	r25, r29
    1568:	df 91       	pop	r29
    156a:	cf 91       	pop	r28
    156c:	08 95       	ret
    156e:	cf 92       	push	r12
    1570:	df 92       	push	r13
    1572:	ef 92       	push	r14
    1574:	ff 92       	push	r15
    1576:	cf 93       	push	r28
    1578:	df 93       	push	r29
    157a:	fc 01       	movw	r30, r24
    157c:	14 8a       	std	Z+20, r1	; 0x14
    157e:	15 8a       	std	Z+21, r1	; 0x15
    1580:	16 8a       	std	Z+22, r1	; 0x16
    1582:	17 8a       	std	Z+23, r1	; 0x17
    1584:	80 81       	ld	r24, Z
    1586:	91 81       	ldd	r25, Z+1	; 0x01
    1588:	97 fd       	sbrc	r25, 7
    158a:	72 c0       	rjmp	.+228    	;  0x1670
    158c:	4a e0       	ldi	r20, 0x0A	; 10
    158e:	20 e1       	ldi	r18, 0x10	; 16
    1590:	30 e0       	ldi	r19, 0x00	; 0
    1592:	f8 94       	cli
    1594:	a1 8d       	ldd	r26, Z+25	; 0x19
    1596:	b2 8d       	ldd	r27, Z+26	; 0x1a
    1598:	12 96       	adiw	r26, 0x02	; 2
    159a:	9c 91       	ld	r25, X
    159c:	12 97       	sbiw	r26, 0x02	; 2
    159e:	80 8d       	ldd	r24, Z+24	; 0x18
    15a0:	80 95       	com	r24
    15a2:	89 23       	and	r24, r25
    15a4:	12 96       	adiw	r26, 0x02	; 2
    15a6:	8c 93       	st	X, r24
    15a8:	a4 8d       	ldd	r26, Z+28	; 0x1c
    15aa:	b5 8d       	ldd	r27, Z+29	; 0x1d
    15ac:	11 96       	adiw	r26, 0x01	; 1
    15ae:	9c 91       	ld	r25, X
    15b0:	11 97       	sbiw	r26, 0x01	; 1
    15b2:	83 8d       	ldd	r24, Z+27	; 0x1b
    15b4:	80 95       	com	r24
    15b6:	89 23       	and	r24, r25
    15b8:	11 96       	adiw	r26, 0x01	; 1
    15ba:	8c 93       	st	X, r24
    15bc:	a4 8d       	ldd	r26, Z+28	; 0x1c
    15be:	b5 8d       	ldd	r27, Z+29	; 0x1d
    15c0:	12 96       	adiw	r26, 0x02	; 2
    15c2:	9c 91       	ld	r25, X
    15c4:	12 97       	sbiw	r26, 0x02	; 2
    15c6:	83 8d       	ldd	r24, Z+27	; 0x1b
    15c8:	80 95       	com	r24
    15ca:	89 23       	and	r24, r25
    15cc:	12 96       	adiw	r26, 0x02	; 2
    15ce:	8c 93       	st	X, r24
    15d0:	a4 8d       	ldd	r26, Z+28	; 0x1c
    15d2:	b5 8d       	ldd	r27, Z+29	; 0x1d
    15d4:	11 96       	adiw	r26, 0x01	; 1
    15d6:	9c 91       	ld	r25, X
    15d8:	11 97       	sbiw	r26, 0x01	; 1
    15da:	83 8d       	ldd	r24, Z+27	; 0x1b
    15dc:	89 2b       	or	r24, r25
    15de:	11 96       	adiw	r26, 0x01	; 1
    15e0:	8c 93       	st	X, r24
    15e2:	a4 8d       	ldd	r26, Z+28	; 0x1c
    15e4:	b5 8d       	ldd	r27, Z+29	; 0x1d
    15e6:	12 96       	adiw	r26, 0x02	; 2
    15e8:	9c 91       	ld	r25, X
    15ea:	12 97       	sbiw	r26, 0x02	; 2
    15ec:	83 8d       	ldd	r24, Z+27	; 0x1b
    15ee:	80 95       	com	r24
    15f0:	89 23       	and	r24, r25
    15f2:	12 96       	adiw	r26, 0x02	; 2
    15f4:	8c 93       	st	X, r24
    15f6:	c9 01       	movw	r24, r18
    15f8:	01 97       	sbiw	r24, 0x01	; 1
    15fa:	f1 f7       	brne	.-4      	;  0x15f8
    15fc:	a4 8d       	ldd	r26, Z+28	; 0x1c
    15fe:	b5 8d       	ldd	r27, Z+29	; 0x1d
    1600:	11 96       	adiw	r26, 0x01	; 1
    1602:	9c 91       	ld	r25, X
    1604:	11 97       	sbiw	r26, 0x01	; 1
    1606:	83 8d       	ldd	r24, Z+27	; 0x1b
    1608:	80 95       	com	r24
    160a:	89 23       	and	r24, r25
    160c:	11 96       	adiw	r26, 0x01	; 1
    160e:	8c 93       	st	X, r24
    1610:	a4 8d       	ldd	r26, Z+28	; 0x1c
    1612:	b5 8d       	ldd	r27, Z+29	; 0x1d
    1614:	12 96       	adiw	r26, 0x02	; 2
    1616:	9c 91       	ld	r25, X
    1618:	12 97       	sbiw	r26, 0x02	; 2
    161a:	83 8d       	ldd	r24, Z+27	; 0x1b
    161c:	80 95       	com	r24
    161e:	89 23       	and	r24, r25
    1620:	12 96       	adiw	r26, 0x02	; 2
    1622:	8c 93       	st	X, r24
    1624:	a1 8d       	ldd	r26, Z+25	; 0x19
    1626:	b2 8d       	ldd	r27, Z+26	; 0x1a
    1628:	12 96       	adiw	r26, 0x02	; 2
    162a:	9c 91       	ld	r25, X
    162c:	12 97       	sbiw	r26, 0x02	; 2
    162e:	80 8d       	ldd	r24, Z+24	; 0x18
    1630:	89 2b       	or	r24, r25
    1632:	12 96       	adiw	r26, 0x02	; 2
    1634:	8c 93       	st	X, r24
    1636:	78 94       	sei
    1638:	c4 8d       	ldd	r28, Z+28	; 0x1c
    163a:	d5 8d       	ldd	r29, Z+29	; 0x1d
    163c:	63 8d       	ldd	r22, Z+27	; 0x1b
    163e:	58 81       	ld	r21, Y
    1640:	56 23       	and	r21, r22
    1642:	84 89       	ldd	r24, Z+20	; 0x14
    1644:	95 89       	ldd	r25, Z+21	; 0x15
    1646:	a6 89       	ldd	r26, Z+22	; 0x16
    1648:	b7 89       	ldd	r27, Z+23	; 0x17
    164a:	c0 84       	ldd	r12, Z+8	; 0x08
    164c:	d1 84       	ldd	r13, Z+9	; 0x09
    164e:	e2 84       	ldd	r14, Z+10	; 0x0a
    1650:	f3 84       	ldd	r15, Z+11	; 0x0b
    1652:	51 11       	cpse	r21, r1
    1654:	11 c0       	rjmp	.+34     	;  0x1678
    1656:	8c 15       	cp	r24, r12
    1658:	9d 05       	cpc	r25, r13
    165a:	ae 05       	cpc	r26, r14
    165c:	bf 05       	cpc	r27, r15
    165e:	60 f4       	brcc	.+24     	;  0x1678
    1660:	01 96       	adiw	r24, 0x01	; 1
    1662:	a1 1d       	adc	r26, r1
    1664:	b1 1d       	adc	r27, r1
    1666:	84 8b       	std	Z+20, r24	; 0x14
    1668:	95 8b       	std	Z+21, r25	; 0x15
    166a:	a6 8b       	std	Z+22, r26	; 0x16
    166c:	b7 8b       	std	Z+23, r27	; 0x17
    166e:	e7 cf       	rjmp	.-50     	;  0x163e
    1670:	6f ef       	ldi	r22, 0xFF	; 255
    1672:	7f ef       	ldi	r23, 0xFF	; 255
    1674:	cb 01       	movw	r24, r22
    1676:	e3 c0       	rjmp	.+454    	;  0x183e
    1678:	c8 16       	cp	r12, r24
    167a:	d9 06       	cpc	r13, r25
    167c:	ea 06       	cpc	r14, r26
    167e:	fb 06       	cpc	r15, r27
    1680:	08 f4       	brcc	.+2      	;  0x1684
    1682:	5c c0       	rjmp	.+184    	;  0x173c
    1684:	f8 94       	cli
    1686:	a4 8d       	ldd	r26, Z+28	; 0x1c
    1688:	b5 8d       	ldd	r27, Z+29	; 0x1d
    168a:	12 96       	adiw	r26, 0x02	; 2
    168c:	9c 91       	ld	r25, X
    168e:	12 97       	sbiw	r26, 0x02	; 2
    1690:	83 8d       	ldd	r24, Z+27	; 0x1b
    1692:	89 2b       	or	r24, r25
    1694:	12 96       	adiw	r26, 0x02	; 2
    1696:	8c 93       	st	X, r24
    1698:	a4 8d       	ldd	r26, Z+28	; 0x1c
    169a:	b5 8d       	ldd	r27, Z+29	; 0x1d
    169c:	11 96       	adiw	r26, 0x01	; 1
    169e:	9c 91       	ld	r25, X
    16a0:	11 97       	sbiw	r26, 0x01	; 1
    16a2:	83 8d       	ldd	r24, Z+27	; 0x1b
    16a4:	89 2b       	or	r24, r25
    16a6:	11 96       	adiw	r26, 0x01	; 1
    16a8:	8c 93       	st	X, r24
    16aa:	a4 8d       	ldd	r26, Z+28	; 0x1c
    16ac:	b5 8d       	ldd	r27, Z+29	; 0x1d
    16ae:	12 96       	adiw	r26, 0x02	; 2
    16b0:	9c 91       	ld	r25, X
    16b2:	12 97       	sbiw	r26, 0x02	; 2
    16b4:	83 8d       	ldd	r24, Z+27	; 0x1b
    16b6:	89 2b       	or	r24, r25
    16b8:	12 96       	adiw	r26, 0x02	; 2
    16ba:	8c 93       	st	X, r24
    16bc:	a4 8d       	ldd	r26, Z+28	; 0x1c
    16be:	b5 8d       	ldd	r27, Z+29	; 0x1d
    16c0:	11 96       	adiw	r26, 0x01	; 1
    16c2:	9c 91       	ld	r25, X
    16c4:	11 97       	sbiw	r26, 0x01	; 1
    16c6:	83 8d       	ldd	r24, Z+27	; 0x1b
    16c8:	80 95       	com	r24
    16ca:	89 23       	and	r24, r25
    16cc:	11 96       	adiw	r26, 0x01	; 1
    16ce:	8c 93       	st	X, r24
    16d0:	a4 8d       	ldd	r26, Z+28	; 0x1c
    16d2:	b5 8d       	ldd	r27, Z+29	; 0x1d
    16d4:	12 96       	adiw	r26, 0x02	; 2
    16d6:	9c 91       	ld	r25, X
    16d8:	12 97       	sbiw	r26, 0x02	; 2
    16da:	83 8d       	ldd	r24, Z+27	; 0x1b
    16dc:	80 95       	com	r24
    16de:	89 23       	and	r24, r25
    16e0:	12 96       	adiw	r26, 0x02	; 2
    16e2:	8c 93       	st	X, r24
    16e4:	a1 8d       	ldd	r26, Z+25	; 0x19
    16e6:	b2 8d       	ldd	r27, Z+26	; 0x1a
    16e8:	12 96       	adiw	r26, 0x02	; 2
    16ea:	9c 91       	ld	r25, X
    16ec:	12 97       	sbiw	r26, 0x02	; 2
    16ee:	80 8d       	ldd	r24, Z+24	; 0x18
    16f0:	80 95       	com	r24
    16f2:	89 23       	and	r24, r25
    16f4:	12 96       	adiw	r26, 0x02	; 2
    16f6:	8c 93       	st	X, r24
    16f8:	78 94       	sei
    16fa:	c4 8d       	ldd	r28, Z+28	; 0x1c
    16fc:	d5 8d       	ldd	r29, Z+29	; 0x1d
    16fe:	63 8d       	ldd	r22, Z+27	; 0x1b
    1700:	58 81       	ld	r21, Y
    1702:	56 23       	and	r21, r22
    1704:	84 89       	ldd	r24, Z+20	; 0x14
    1706:	95 89       	ldd	r25, Z+21	; 0x15
    1708:	a6 89       	ldd	r26, Z+22	; 0x16
    170a:	b7 89       	ldd	r27, Z+23	; 0x17
    170c:	c0 84       	ldd	r12, Z+8	; 0x08
    170e:	d1 84       	ldd	r13, Z+9	; 0x09
    1710:	e2 84       	ldd	r14, Z+10	; 0x0a
    1712:	f3 84       	ldd	r15, Z+11	; 0x0b
    1714:	55 23       	and	r21, r21
    1716:	69 f0       	breq	.+26     	;  0x1732
    1718:	8c 15       	cp	r24, r12
    171a:	9d 05       	cpc	r25, r13
    171c:	ae 05       	cpc	r26, r14
    171e:	bf 05       	cpc	r27, r15
    1720:	40 f4       	brcc	.+16     	;  0x1732
    1722:	01 96       	adiw	r24, 0x01	; 1
    1724:	a1 1d       	adc	r26, r1
    1726:	b1 1d       	adc	r27, r1
    1728:	84 8b       	std	Z+20, r24	; 0x14
    172a:	95 8b       	std	Z+21, r25	; 0x15
    172c:	a6 8b       	std	Z+22, r26	; 0x16
    172e:	b7 8b       	std	Z+23, r27	; 0x17
    1730:	e7 cf       	rjmp	.-50     	;  0x1700
    1732:	8c 15       	cp	r24, r12
    1734:	9d 05       	cpc	r25, r13
    1736:	ae 05       	cpc	r26, r14
    1738:	bf 05       	cpc	r27, r15
    173a:	28 f0       	brcs	.+10     	;  0x1746
    173c:	6e ef       	ldi	r22, 0xFE	; 254
    173e:	7f ef       	ldi	r23, 0xFF	; 255
    1740:	8f ef       	ldi	r24, 0xFF	; 255
    1742:	9f ef       	ldi	r25, 0xFF	; 255
    1744:	7c c0       	rjmp	.+248    	;  0x183e
    1746:	41 50       	subi	r20, 0x01	; 1
    1748:	09 f0       	breq	.+2      	;  0x174c
    174a:	23 cf       	rjmp	.-442    	;  0x1592
    174c:	ef 01       	movw	r28, r30
    174e:	2f b7       	in	r18, 0x3f	; 63
    1750:	f8 94       	cli
    1752:	80 91 03 03 	lds	r24, 0x0303	;  0x800303
    1756:	90 91 04 03 	lds	r25, 0x0304	;  0x800304
    175a:	a0 91 05 03 	lds	r26, 0x0305	;  0x800305
    175e:	b0 91 06 03 	lds	r27, 0x0306	;  0x800306
    1762:	2f bf       	out	0x3f, r18	; 63
    1764:	40 89       	ldd	r20, Z+16	; 0x10
    1766:	51 89       	ldd	r21, Z+17	; 0x11
    1768:	62 89       	ldd	r22, Z+18	; 0x12
    176a:	73 89       	ldd	r23, Z+19	; 0x13
    176c:	84 1b       	sub	r24, r20
    176e:	95 0b       	sbc	r25, r21
    1770:	a6 0b       	sbc	r26, r22
    1772:	b7 0b       	sbc	r27, r23
    1774:	44 85       	ldd	r20, Z+12	; 0x0c
    1776:	55 85       	ldd	r21, Z+13	; 0x0d
    1778:	66 85       	ldd	r22, Z+14	; 0x0e
    177a:	77 85       	ldd	r23, Z+15	; 0x0f
    177c:	48 17       	cp	r20, r24
    177e:	59 07       	cpc	r21, r25
    1780:	6a 07       	cpc	r22, r26
    1782:	7b 07       	cpc	r23, r27
    1784:	40 f5       	brcc	.+80     	;  0x17d6
    1786:	c4 88       	ldd	r12, Z+20	; 0x14
    1788:	d5 88       	ldd	r13, Z+21	; 0x15
    178a:	e6 88       	ldd	r14, Z+22	; 0x16
    178c:	f7 88       	ldd	r15, Z+23	; 0x17
    178e:	62 81       	ldd	r22, Z+2	; 0x02
    1790:	73 81       	ldd	r23, Z+3	; 0x03
    1792:	84 81       	ldd	r24, Z+4	; 0x04
    1794:	95 81       	ldd	r25, Z+5	; 0x05
    1796:	c6 16       	cp	r12, r22
    1798:	d7 06       	cpc	r13, r23
    179a:	e8 06       	cpc	r14, r24
    179c:	f9 06       	cpc	r15, r25
    179e:	29 f0       	breq	.+10     	;  0x17aa
    17a0:	c6 1a       	sub	r12, r22
    17a2:	d7 0a       	sbc	r13, r23
    17a4:	e8 0a       	sbc	r14, r24
    17a6:	f9 0a       	sbc	r15, r25
    17a8:	03 c0       	rjmp	.+6      	;  0x17b0
    17aa:	c1 2c       	mov	r12, r1
    17ac:	d1 2c       	mov	r13, r1
    17ae:	76 01       	movw	r14, r12
    17b0:	0e 94 cb 1a 	call	0x3596	;  0x3596
    17b4:	2d ec       	ldi	r18, 0xCD	; 205
    17b6:	3c ec       	ldi	r19, 0xCC	; 204
    17b8:	4c ec       	ldi	r20, 0xCC	; 204
    17ba:	5d e3       	ldi	r21, 0x3D	; 61
    17bc:	0e 94 d2 1b 	call	0x37a4	;  0x37a4
    17c0:	0e 94 95 1a 	call	0x352a	;  0x352a
    17c4:	cb 01       	movw	r24, r22
    17c6:	77 0f       	add	r23, r23
    17c8:	aa 0b       	sbc	r26, r26
    17ca:	bb 0b       	sbc	r27, r27
    17cc:	c8 16       	cp	r12, r24
    17ce:	d9 06       	cpc	r13, r25
    17d0:	ea 06       	cpc	r14, r26
    17d2:	fb 06       	cpc	r15, r27
    17d4:	e0 f0       	brcs	.+56     	;  0x180e
    17d6:	8c 89       	ldd	r24, Y+20	; 0x14
    17d8:	9d 89       	ldd	r25, Y+21	; 0x15
    17da:	ae 89       	ldd	r26, Y+22	; 0x16
    17dc:	bf 89       	ldd	r27, Y+23	; 0x17
    17de:	ca 80       	ldd	r12, Y+2	; 0x02
    17e0:	db 80       	ldd	r13, Y+3	; 0x03
    17e2:	ec 80       	ldd	r14, Y+4	; 0x04
    17e4:	fd 80       	ldd	r15, Y+5	; 0x05
    17e6:	8c 15       	cp	r24, r12
    17e8:	9d 05       	cpc	r25, r13
    17ea:	ae 05       	cpc	r26, r14
    17ec:	bf 05       	cpc	r27, r15
    17ee:	20 f4       	brcc	.+8      	;  0x17f8
    17f0:	8a 83       	std	Y+2, r24	; 0x02
    17f2:	9b 83       	std	Y+3, r25	; 0x03
    17f4:	ac 83       	std	Y+4, r26	; 0x04
    17f6:	bd 83       	std	Y+5, r27	; 0x05
    17f8:	ca 80       	ldd	r12, Y+2	; 0x02
    17fa:	db 80       	ldd	r13, Y+3	; 0x03
    17fc:	ec 80       	ldd	r14, Y+4	; 0x04
    17fe:	fd 80       	ldd	r15, Y+5	; 0x05
    1800:	bc 01       	movw	r22, r24
    1802:	cd 01       	movw	r24, r26
    1804:	6c 19       	sub	r22, r12
    1806:	7d 09       	sbc	r23, r13
    1808:	8e 09       	sbc	r24, r14
    180a:	9f 09       	sbc	r25, r15
    180c:	18 c0       	rjmp	.+48     	;  0x183e
    180e:	8f ef       	ldi	r24, 0xFF	; 255
    1810:	9f ef       	ldi	r25, 0xFF	; 255
    1812:	af ef       	ldi	r26, 0xFF	; 255
    1814:	bf e0       	ldi	r27, 0x0F	; 15
    1816:	8a 83       	std	Y+2, r24	; 0x02
    1818:	9b 83       	std	Y+3, r25	; 0x03
    181a:	ac 83       	std	Y+4, r26	; 0x04
    181c:	bd 83       	std	Y+5, r27	; 0x05
    181e:	2f b7       	in	r18, 0x3f	; 63
    1820:	f8 94       	cli
    1822:	80 91 03 03 	lds	r24, 0x0303	;  0x800303
    1826:	90 91 04 03 	lds	r25, 0x0304	;  0x800304
    182a:	a0 91 05 03 	lds	r26, 0x0305	;  0x800305
    182e:	b0 91 06 03 	lds	r27, 0x0306	;  0x800306
    1832:	2f bf       	out	0x3f, r18	; 63
    1834:	88 8b       	std	Y+16, r24	; 0x10
    1836:	99 8b       	std	Y+17, r25	; 0x11
    1838:	aa 8b       	std	Y+18, r26	; 0x12
    183a:	bb 8b       	std	Y+19, r27	; 0x13
    183c:	cc cf       	rjmp	.-104    	;  0x17d6
    183e:	df 91       	pop	r29
    1840:	cf 91       	pop	r28
    1842:	ff 90       	pop	r15
    1844:	ef 90       	pop	r14
    1846:	df 90       	pop	r13
    1848:	cf 90       	pop	r12
    184a:	08 95       	ret
    184c:	fc 01       	movw	r30, r24
    184e:	80 91 02 03 	lds	r24, 0x0302	;  0x800302
    1852:	81 11       	cpse	r24, r1
    1854:	03 c0       	rjmp	.+6      	;  0x185c
    1856:	8f ef       	ldi	r24, 0xFF	; 255
    1858:	9f ef       	ldi	r25, 0xFF	; 255
    185a:	08 95       	ret
    185c:	9f b7       	in	r25, 0x3f	; 63
    185e:	f8 94       	cli
    1860:	82 e0       	ldi	r24, 0x02	; 2
    1862:	80 93 e9 00 	sts	0x00E9, r24	;  0x8000e9
    1866:	20 91 f2 00 	lds	r18, 0x00F2	;  0x8000f2
    186a:	30 e0       	ldi	r19, 0x00	; 0
    186c:	12 16       	cp	r1, r18
    186e:	13 06       	cpc	r1, r19
    1870:	14 f4       	brge	.+4      	;  0x1876
    1872:	21 e0       	ldi	r18, 0x01	; 1
    1874:	30 e0       	ldi	r19, 0x00	; 0
    1876:	21 15       	cp	r18, r1
    1878:	31 05       	cpc	r19, r1
    187a:	51 f0       	breq	.+20     	;  0x1890
    187c:	84 e6       	ldi	r24, 0x64	; 100
    187e:	80 93 01 03 	sts	0x0301, r24	;  0x800301
    1882:	80 91 f1 00 	lds	r24, 0x00F1	;  0x8000f1
    1886:	80 83       	st	Z, r24
    1888:	80 91 f2 00 	lds	r24, 0x00F2	;  0x8000f2
    188c:	88 23       	and	r24, r24
    188e:	19 f0       	breq	.+6      	;  0x1896
    1890:	9f bf       	out	0x3f, r25	; 63
    1892:	c9 01       	movw	r24, r18
    1894:	08 95       	ret
    1896:	8b e6       	ldi	r24, 0x6B	; 107
    1898:	80 93 e8 00 	sts	0x00E8, r24	;  0x8000e8
    189c:	f9 cf       	rjmp	.-14     	;  0x1890
    189e:	80 91 0b 03 	lds	r24, 0x030B	;  0x80030b
    18a2:	81 11       	cpse	r24, r1
    18a4:	0d c0       	rjmp	.+26     	;  0x18c0
    18a6:	82 e0       	ldi	r24, 0x02	; 2
    18a8:	80 93 07 03 	sts	0x0307, r24	;  0x800307
    18ac:	84 e0       	ldi	r24, 0x04	; 4
    18ae:	80 93 08 03 	sts	0x0308, r24	;  0x800308
    18b2:	10 92 0a 03 	sts	0x030A, r1	;  0x80030a
    18b6:	10 92 09 03 	sts	0x0309, r1	;  0x800309
    18ba:	81 e0       	ldi	r24, 0x01	; 1
    18bc:	80 93 0b 03 	sts	0x030B, r24	;  0x80030b
    18c0:	87 e0       	ldi	r24, 0x07	; 7
    18c2:	93 e0       	ldi	r25, 0x03	; 3
    18c4:	08 95       	ret
    18c6:	40 91 17 03 	lds	r20, 0x0317	;  0x800317
    18ca:	50 91 18 03 	lds	r21, 0x0318	;  0x800318
    18ce:	20 91 15 03 	lds	r18, 0x0315	;  0x800315
    18d2:	30 91 16 03 	lds	r19, 0x0316	;  0x800316
    18d6:	42 17       	cp	r20, r18
    18d8:	53 07       	cpc	r21, r19
    18da:	b4 f4       	brge	.+44     	;  0x1908
    18dc:	90 91 e8 00 	lds	r25, 0x00E8	;  0x8000e8
    18e0:	95 70       	andi	r25, 0x05	; 5
    18e2:	e1 f3       	breq	.-8      	;  0x18dc
    18e4:	90 91 e8 00 	lds	r25, 0x00E8	;  0x8000e8
    18e8:	92 fd       	sbrc	r25, 2
    18ea:	19 c0       	rjmp	.+50     	;  0x191e
    18ec:	80 93 f1 00 	sts	0x00F1, r24	;  0x8000f1
    18f0:	80 91 17 03 	lds	r24, 0x0317	;  0x800317
    18f4:	90 91 18 03 	lds	r25, 0x0318	;  0x800318
    18f8:	01 96       	adiw	r24, 0x01	; 1
    18fa:	8f 73       	andi	r24, 0x3F	; 63
    18fc:	99 27       	eor	r25, r25
    18fe:	89 2b       	or	r24, r25
    1900:	19 f4       	brne	.+6      	;  0x1908
    1902:	8e ef       	ldi	r24, 0xFE	; 254
    1904:	80 93 e8 00 	sts	0x00E8, r24	;  0x8000e8
    1908:	80 91 17 03 	lds	r24, 0x0317	;  0x800317
    190c:	90 91 18 03 	lds	r25, 0x0318	;  0x800318
    1910:	01 96       	adiw	r24, 0x01	; 1
    1912:	90 93 18 03 	sts	0x0318, r25	;  0x800318
    1916:	80 93 17 03 	sts	0x0317, r24	;  0x800317
    191a:	81 e0       	ldi	r24, 0x01	; 1
    191c:	08 95       	ret
    191e:	80 e0       	ldi	r24, 0x00	; 0
    1920:	08 95       	ret
    1922:	cf 92       	push	r12
    1924:	df 92       	push	r13
    1926:	ef 92       	push	r14
    1928:	ff 92       	push	r15
    192a:	0f 93       	push	r16
    192c:	1f 93       	push	r17
    192e:	cf 93       	push	r28
    1930:	df 93       	push	r29
    1932:	1f 92       	push	r1
    1934:	cd b7       	in	r28, 0x3d	; 61
    1936:	de b7       	in	r29, 0x3e	; 62
    1938:	18 2f       	mov	r17, r24
    193a:	06 2f       	mov	r16, r22
    193c:	e4 2e       	mov	r14, r20
    193e:	86 2f       	mov	r24, r22
    1940:	88 0f       	add	r24, r24
    1942:	8e 5f       	subi	r24, 0xFE	; 254
    1944:	99 83       	std	Y+1, r25	; 0x01
    1946:	0e 94 63 0c 	call	0x18c6	;  0x18c6
    194a:	83 e0       	ldi	r24, 0x03	; 3
    194c:	0e 94 63 0c 	call	0x18c6	;  0x18c6
    1950:	f1 2e       	mov	r15, r17
    1952:	c1 2e       	mov	r12, r17
    1954:	99 81       	ldd	r25, Y+1	; 0x01
    1956:	d9 2e       	mov	r13, r25
    1958:	8c 2d       	mov	r24, r12
    195a:	8f 19       	sub	r24, r15
    195c:	80 17       	cp	r24, r16
    195e:	98 f4       	brcc	.+38     	;  0x1986
    1960:	f6 01       	movw	r30, r12
    1962:	e7 fe       	sbrs	r14, 7
    1964:	02 c0       	rjmp	.+4      	;  0x196a
    1966:	84 91       	lpm	r24, Z
    1968:	01 c0       	rjmp	.+2      	;  0x196c
    196a:	80 81       	ld	r24, Z
    196c:	0e 94 63 0c 	call	0x18c6	;  0x18c6
    1970:	18 2f       	mov	r17, r24
    1972:	80 e0       	ldi	r24, 0x00	; 0
    1974:	0e 94 63 0c 	call	0x18c6	;  0x18c6
    1978:	81 23       	and	r24, r17
    197a:	ff ef       	ldi	r31, 0xFF	; 255
    197c:	cf 1a       	sub	r12, r31
    197e:	df 0a       	sbc	r13, r31
    1980:	81 11       	cpse	r24, r1
    1982:	ea cf       	rjmp	.-44     	;  0x1958
    1984:	01 c0       	rjmp	.+2      	;  0x1988
    1986:	81 e0       	ldi	r24, 0x01	; 1
    1988:	0f 90       	pop	r0
    198a:	df 91       	pop	r29
    198c:	cf 91       	pop	r28
    198e:	1f 91       	pop	r17
    1990:	0f 91       	pop	r16
    1992:	ff 90       	pop	r15
    1994:	ef 90       	pop	r14
    1996:	df 90       	pop	r13
    1998:	cf 90       	pop	r12
    199a:	08 95       	ret
    199c:	df 92       	push	r13
    199e:	ef 92       	push	r14
    19a0:	ff 92       	push	r15
    19a2:	0f 93       	push	r16
    19a4:	1f 93       	push	r17
    19a6:	cf 93       	push	r28
    19a8:	df 93       	push	r29
    19aa:	d8 2e       	mov	r13, r24
    19ac:	8a 01       	movw	r16, r20
    19ae:	7b 01       	movw	r14, r22
    19b0:	e4 0e       	add	r14, r20
    19b2:	f5 1e       	adc	r15, r21
    19b4:	eb 01       	movw	r28, r22
    19b6:	ce 15       	cp	r28, r14
    19b8:	df 05       	cpc	r29, r15
    19ba:	71 f0       	breq	.+28     	;  0x19d8
    19bc:	d7 fe       	sbrs	r13, 7
    19be:	03 c0       	rjmp	.+6      	;  0x19c6
    19c0:	fe 01       	movw	r30, r28
    19c2:	84 91       	lpm	r24, Z
    19c4:	01 c0       	rjmp	.+2      	;  0x19c8
    19c6:	88 81       	ld	r24, Y
    19c8:	0e 94 63 0c 	call	0x18c6	;  0x18c6
    19cc:	21 96       	adiw	r28, 0x01	; 1
    19ce:	81 11       	cpse	r24, r1
    19d0:	f2 cf       	rjmp	.-28     	;  0x19b6
    19d2:	8f ef       	ldi	r24, 0xFF	; 255
    19d4:	9f ef       	ldi	r25, 0xFF	; 255
    19d6:	01 c0       	rjmp	.+2      	;  0x19da
    19d8:	c8 01       	movw	r24, r16
    19da:	df 91       	pop	r29
    19dc:	cf 91       	pop	r28
    19de:	1f 91       	pop	r17
    19e0:	0f 91       	pop	r16
    19e2:	ff 90       	pop	r15
    19e4:	ef 90       	pop	r14
    19e6:	df 90       	pop	r13
    19e8:	08 95       	ret
    19ea:	cf 92       	push	r12
    19ec:	df 92       	push	r13
    19ee:	ef 92       	push	r14
    19f0:	ff 92       	push	r15
    19f2:	0f 93       	push	r16
    19f4:	1f 93       	push	r17
    19f6:	cf 93       	push	r28
    19f8:	df 93       	push	r29
    19fa:	6c 01       	movw	r12, r24
    19fc:	7a 01       	movw	r14, r20
    19fe:	8b 01       	movw	r16, r22
    1a00:	c0 e0       	ldi	r28, 0x00	; 0
    1a02:	d0 e0       	ldi	r29, 0x00	; 0
    1a04:	ce 15       	cp	r28, r14
    1a06:	df 05       	cpc	r29, r15
    1a08:	89 f0       	breq	.+34     	;  0x1a2c
    1a0a:	d8 01       	movw	r26, r16
    1a0c:	6d 91       	ld	r22, X+
    1a0e:	8d 01       	movw	r16, r26
    1a10:	d6 01       	movw	r26, r12
    1a12:	ed 91       	ld	r30, X+
    1a14:	fc 91       	ld	r31, X
    1a16:	01 90       	ld	r0, Z+
    1a18:	f0 81       	ld	r31, Z
    1a1a:	e0 2d       	mov	r30, r0
    1a1c:	c6 01       	movw	r24, r12
    1a1e:	09 95       	icall
    1a20:	89 2b       	or	r24, r25
    1a22:	11 f4       	brne	.+4      	;  0x1a28
    1a24:	7e 01       	movw	r14, r28
    1a26:	02 c0       	rjmp	.+4      	;  0x1a2c
    1a28:	21 96       	adiw	r28, 0x01	; 1
    1a2a:	ec cf       	rjmp	.-40     	;  0x1a04
    1a2c:	c7 01       	movw	r24, r14
    1a2e:	df 91       	pop	r29
    1a30:	cf 91       	pop	r28
    1a32:	1f 91       	pop	r17
    1a34:	0f 91       	pop	r16
    1a36:	ff 90       	pop	r15
    1a38:	ef 90       	pop	r14
    1a3a:	df 90       	pop	r13
    1a3c:	cf 90       	pop	r12
    1a3e:	08 95       	ret
    1a40:	cf 93       	push	r28
    1a42:	df 93       	push	r29
    1a44:	1f 92       	push	r1
    1a46:	cd b7       	in	r28, 0x3d	; 61
    1a48:	de b7       	in	r29, 0x3e	; 62
    1a4a:	69 83       	std	Y+1, r22	; 0x01
    1a4c:	dc 01       	movw	r26, r24
    1a4e:	ed 91       	ld	r30, X+
    1a50:	fc 91       	ld	r31, X
    1a52:	02 80       	ldd	r0, Z+2	; 0x02
    1a54:	f3 81       	ldd	r31, Z+3	; 0x03
    1a56:	e0 2d       	mov	r30, r0
    1a58:	41 e0       	ldi	r20, 0x01	; 1
    1a5a:	50 e0       	ldi	r21, 0x00	; 0
    1a5c:	be 01       	movw	r22, r28
    1a5e:	6f 5f       	subi	r22, 0xFF	; 255
    1a60:	7f 4f       	sbci	r23, 0xFF	; 255
    1a62:	09 95       	icall
    1a64:	0f 90       	pop	r0
    1a66:	df 91       	pop	r29
    1a68:	cf 91       	pop	r28
    1a6a:	08 95       	ret
    1a6c:	83 e0       	ldi	r24, 0x03	; 3
    1a6e:	80 93 e9 00 	sts	0x00E9, r24	;  0x8000e9
    1a72:	80 91 f2 00 	lds	r24, 0x00F2	;  0x8000f2
    1a76:	88 23       	and	r24, r24
    1a78:	19 f0       	breq	.+6      	;  0x1a80
    1a7a:	8a e3       	ldi	r24, 0x3A	; 58
    1a7c:	80 93 e8 00 	sts	0x00E8, r24	;  0x8000e8
    1a80:	08 95       	ret
    1a82:	fc 01       	movw	r30, r24
    1a84:	84 85       	ldd	r24, Z+12	; 0x0c
    1a86:	95 85       	ldd	r25, Z+13	; 0x0d
    1a88:	97 fd       	sbrc	r25, 7
    1a8a:	0b c0       	rjmp	.+22     	;  0x1aa2
    1a8c:	9f b7       	in	r25, 0x3f	; 63
    1a8e:	f8 94       	cli
    1a90:	82 e0       	ldi	r24, 0x02	; 2
    1a92:	80 93 e9 00 	sts	0x00E9, r24	;  0x8000e9
    1a96:	80 91 f2 00 	lds	r24, 0x00F2	;  0x8000f2
    1a9a:	9f bf       	out	0x3f, r25	; 63
    1a9c:	90 e0       	ldi	r25, 0x00	; 0
    1a9e:	01 96       	adiw	r24, 0x01	; 1
    1aa0:	08 95       	ret
    1aa2:	9f b7       	in	r25, 0x3f	; 63
    1aa4:	f8 94       	cli
    1aa6:	82 e0       	ldi	r24, 0x02	; 2
    1aa8:	80 93 e9 00 	sts	0x00E9, r24	;  0x8000e9
    1aac:	80 91 f2 00 	lds	r24, 0x00F2	;  0x8000f2
    1ab0:	9f bf       	out	0x3f, r25	; 63
    1ab2:	90 e0       	ldi	r25, 0x00	; 0
    1ab4:	08 95       	ret
    1ab6:	0f 93       	push	r16
    1ab8:	1f 93       	push	r17
    1aba:	cf 93       	push	r28
    1abc:	df 93       	push	r29
    1abe:	1f 92       	push	r1
    1ac0:	cd b7       	in	r28, 0x3d	; 61
    1ac2:	de b7       	in	r29, 0x3e	; 62
    1ac4:	82 e0       	ldi	r24, 0x02	; 2
    1ac6:	89 83       	std	Y+1, r24	; 0x01
    1ac8:	42 e4       	ldi	r20, 0x42	; 66
    1aca:	50 e0       	ldi	r21, 0x00	; 0
    1acc:	68 eb       	ldi	r22, 0xB8	; 184
    1ace:	71 e0       	ldi	r23, 0x01	; 1
    1ad0:	80 e8       	ldi	r24, 0x80	; 128
    1ad2:	0e 94 ce 0c 	call	0x199c	;  0x199c
    1ad6:	0e 94 4f 0c 	call	0x189e	;  0x189e
    1ada:	dc 01       	movw	r26, r24
    1adc:	12 96       	adiw	r26, 0x02	; 2
    1ade:	0d 91       	ld	r16, X+
    1ae0:	1c 91       	ld	r17, X
    1ae2:	13 97       	sbiw	r26, 0x03	; 3
    1ae4:	01 15       	cp	r16, r1
    1ae6:	11 05       	cpc	r17, r1
    1ae8:	69 f0       	breq	.+26     	;  0x1b04
    1aea:	d8 01       	movw	r26, r16
    1aec:	ed 91       	ld	r30, X+
    1aee:	fc 91       	ld	r31, X
    1af0:	02 80       	ldd	r0, Z+2	; 0x02
    1af2:	f3 81       	ldd	r31, Z+3	; 0x03
    1af4:	e0 2d       	mov	r30, r0
    1af6:	be 01       	movw	r22, r28
    1af8:	6f 5f       	subi	r22, 0xFF	; 255
    1afa:	7f 4f       	sbci	r23, 0xFF	; 255
    1afc:	c8 01       	movw	r24, r16
    1afe:	09 95       	icall
    1b00:	97 ff       	sbrs	r25, 7
    1b02:	07 c0       	rjmp	.+14     	;  0x1b12
    1b04:	89 81       	ldd	r24, Y+1	; 0x01
    1b06:	0f 90       	pop	r0
    1b08:	df 91       	pop	r29
    1b0a:	cf 91       	pop	r28
    1b0c:	1f 91       	pop	r17
    1b0e:	0f 91       	pop	r16
    1b10:	08 95       	ret
    1b12:	f8 01       	movw	r30, r16
    1b14:	00 85       	ldd	r16, Z+8	; 0x08
    1b16:	11 85       	ldd	r17, Z+9	; 0x09
    1b18:	e5 cf       	rjmp	.-54     	;  0x1ae4
    1b1a:	8f 92       	push	r8
    1b1c:	9f 92       	push	r9
    1b1e:	af 92       	push	r10
    1b20:	bf 92       	push	r11
    1b22:	cf 92       	push	r12
    1b24:	df 92       	push	r13
    1b26:	ef 92       	push	r14
    1b28:	ff 92       	push	r15
    1b2a:	0f 93       	push	r16
    1b2c:	1f 93       	push	r17
    1b2e:	cf 93       	push	r28
    1b30:	df 93       	push	r29
    1b32:	5c 01       	movw	r10, r24
    1b34:	6b 01       	movw	r12, r22
    1b36:	8a 01       	movw	r16, r20
    1b38:	80 91 0c 01 	lds	r24, 0x010C	;  0x80010c
    1b3c:	88 23       	and	r24, r24
    1b3e:	09 f4       	brne	.+2      	;  0x1b42
    1b40:	5d c0       	rjmp	.+186    	;  0x1bfc
    1b42:	80 91 02 03 	lds	r24, 0x0302	;  0x800302
    1b46:	88 23       	and	r24, r24
    1b48:	09 f4       	brne	.+2      	;  0x1b4c
    1b4a:	58 c0       	rjmp	.+176    	;  0x1bfc
    1b4c:	80 91 91 02 	lds	r24, 0x0291	;  0x800291
    1b50:	80 ff       	sbrs	r24, 0
    1b52:	05 c0       	rjmp	.+10     	;  0x1b5e
    1b54:	80 91 e0 00 	lds	r24, 0x00E0	;  0x8000e0
    1b58:	82 60       	ori	r24, 0x02	; 2
    1b5a:	80 93 e0 00 	sts	0x00E0, r24	;  0x8000e0
    1b5e:	e8 01       	movw	r28, r16
    1b60:	8a ef       	ldi	r24, 0xFA	; 250
    1b62:	f8 2e       	mov	r15, r24
    1b64:	93 e0       	ldi	r25, 0x03	; 3
    1b66:	e9 2e       	mov	r14, r25
    1b68:	2f e3       	ldi	r18, 0x3F	; 63
    1b6a:	82 2e       	mov	r8, r18
    1b6c:	3a e3       	ldi	r19, 0x3A	; 58
    1b6e:	93 2e       	mov	r9, r19
    1b70:	20 97       	sbiw	r28, 0x00	; 0
    1b72:	09 f4       	brne	.+2      	;  0x1b76
    1b74:	3d c0       	rjmp	.+122    	;  0x1bf0
    1b76:	8f b7       	in	r24, 0x3f	; 63
    1b78:	f8 94       	cli
    1b7a:	e0 92 e9 00 	sts	0x00E9, r14	;  0x8000e9
    1b7e:	90 91 e8 00 	lds	r25, 0x00E8	;  0x8000e8
    1b82:	95 ff       	sbrs	r25, 5
    1b84:	06 c0       	rjmp	.+12     	;  0x1b92
    1b86:	90 91 f2 00 	lds	r25, 0x00F2	;  0x8000f2
    1b8a:	28 2d       	mov	r18, r8
    1b8c:	29 1b       	sub	r18, r25
    1b8e:	92 2f       	mov	r25, r18
    1b90:	01 c0       	rjmp	.+2      	;  0x1b94
    1b92:	90 e0       	ldi	r25, 0x00	; 0
    1b94:	8f bf       	out	0x3f, r24	; 63
    1b96:	91 11       	cpse	r25, r1
    1b98:	0a c0       	rjmp	.+20     	;  0x1bae
    1b9a:	fa 94       	dec	r15
    1b9c:	ff 20       	and	r15, r15
    1b9e:	71 f1       	breq	.+92     	;  0x1bfc
    1ba0:	61 e0       	ldi	r22, 0x01	; 1
    1ba2:	70 e0       	ldi	r23, 0x00	; 0
    1ba4:	80 e0       	ldi	r24, 0x00	; 0
    1ba6:	90 e0       	ldi	r25, 0x00	; 0
    1ba8:	0e 94 22 03 	call	0x644	;  0x644
    1bac:	e1 cf       	rjmp	.-62     	;  0x1b70
    1bae:	29 2f       	mov	r18, r25
    1bb0:	30 e0       	ldi	r19, 0x00	; 0
    1bb2:	c2 17       	cp	r28, r18
    1bb4:	d3 07       	cpc	r29, r19
    1bb6:	0c f4       	brge	.+2      	;  0x1bba
    1bb8:	9c 2f       	mov	r25, r28
    1bba:	8f b7       	in	r24, 0x3f	; 63
    1bbc:	f8 94       	cli
    1bbe:	e0 92 e9 00 	sts	0x00E9, r14	;  0x8000e9
    1bc2:	20 91 e8 00 	lds	r18, 0x00E8	;  0x8000e8
    1bc6:	25 ff       	sbrs	r18, 5
    1bc8:	11 c0       	rjmp	.+34     	;  0x1bec
    1bca:	29 2f       	mov	r18, r25
    1bcc:	30 e0       	ldi	r19, 0x00	; 0
    1bce:	c2 1b       	sub	r28, r18
    1bd0:	d3 0b       	sbc	r29, r19
    1bd2:	f6 01       	movw	r30, r12
    1bd4:	91 50       	subi	r25, 0x01	; 1
    1bd6:	20 f0       	brcs	.+8      	;  0x1be0
    1bd8:	41 91       	ld	r20, Z+
    1bda:	40 93 f1 00 	sts	0x00F1, r20	;  0x8000f1
    1bde:	fa cf       	rjmp	.-12     	;  0x1bd4
    1be0:	c2 0e       	add	r12, r18
    1be2:	d3 1e       	adc	r13, r19
    1be4:	90 91 e8 00 	lds	r25, 0x00E8	;  0x8000e8
    1be8:	95 ff       	sbrs	r25, 5
    1bea:	12 c0       	rjmp	.+36     	;  0x1c10
    1bec:	8f bf       	out	0x3f, r24	; 63
    1bee:	c0 cf       	rjmp	.-128    	;  0x1b70
    1bf0:	84 e6       	ldi	r24, 0x64	; 100
    1bf2:	80 93 19 03 	sts	0x0319, r24	;  0x800319
    1bf6:	10 16       	cp	r1, r16
    1bf8:	11 06       	cpc	r1, r17
    1bfa:	44 f0       	brlt	.+16     	;  0x1c0c
    1bfc:	81 e0       	ldi	r24, 0x01	; 1
    1bfe:	90 e0       	ldi	r25, 0x00	; 0
    1c00:	f5 01       	movw	r30, r10
    1c02:	93 83       	std	Z+3, r25	; 0x03
    1c04:	82 83       	std	Z+2, r24	; 0x02
    1c06:	80 e0       	ldi	r24, 0x00	; 0
    1c08:	90 e0       	ldi	r25, 0x00	; 0
    1c0a:	05 c0       	rjmp	.+10     	;  0x1c16
    1c0c:	c8 01       	movw	r24, r16
    1c0e:	03 c0       	rjmp	.+6      	;  0x1c16
    1c10:	90 92 e8 00 	sts	0x00E8, r9	;  0x8000e8
    1c14:	eb cf       	rjmp	.-42     	;  0x1bec
    1c16:	df 91       	pop	r29
    1c18:	cf 91       	pop	r28
    1c1a:	1f 91       	pop	r17
    1c1c:	0f 91       	pop	r16
    1c1e:	ff 90       	pop	r15
    1c20:	ef 90       	pop	r14
    1c22:	df 90       	pop	r13
    1c24:	cf 90       	pop	r12
    1c26:	bf 90       	pop	r11
    1c28:	af 90       	pop	r10
    1c2a:	9f 90       	pop	r9
    1c2c:	8f 90       	pop	r8
    1c2e:	08 95       	ret
    1c30:	cf 93       	push	r28
    1c32:	df 93       	push	r29
    1c34:	1f 92       	push	r1
    1c36:	cd b7       	in	r28, 0x3d	; 61
    1c38:	de b7       	in	r29, 0x3e	; 62
    1c3a:	fc 01       	movw	r30, r24
    1c3c:	84 85       	ldd	r24, Z+12	; 0x0c
    1c3e:	95 85       	ldd	r25, Z+13	; 0x0d
    1c40:	97 fd       	sbrc	r25, 7
    1c42:	05 c0       	rjmp	.+10     	;  0x1c4e
    1c44:	2f ef       	ldi	r18, 0xFF	; 255
    1c46:	3f ef       	ldi	r19, 0xFF	; 255
    1c48:	35 87       	std	Z+13, r19	; 0x0d
    1c4a:	24 87       	std	Z+12, r18	; 0x0c
    1c4c:	0b c0       	rjmp	.+22     	;  0x1c64
    1c4e:	ce 01       	movw	r24, r28
    1c50:	01 96       	adiw	r24, 0x01	; 1
    1c52:	0e 94 26 0c 	call	0x184c	;  0x184c
    1c56:	01 97       	sbiw	r24, 0x01	; 1
    1c58:	19 f4       	brne	.+6      	;  0x1c60
    1c5a:	89 81       	ldd	r24, Y+1	; 0x01
    1c5c:	90 e0       	ldi	r25, 0x00	; 0
    1c5e:	02 c0       	rjmp	.+4      	;  0x1c64
    1c60:	8f ef       	ldi	r24, 0xFF	; 255
    1c62:	9f ef       	ldi	r25, 0xFF	; 255
    1c64:	0f 90       	pop	r0
    1c66:	df 91       	pop	r29
    1c68:	cf 91       	pop	r28
    1c6a:	08 95       	ret
    1c6c:	0f 93       	push	r16
    1c6e:	1f 93       	push	r17
    1c70:	cf 93       	push	r28
    1c72:	df 93       	push	r29
    1c74:	1f 92       	push	r1
    1c76:	cd b7       	in	r28, 0x3d	; 61
    1c78:	de b7       	in	r29, 0x3e	; 62
    1c7a:	8c 01       	movw	r16, r24
    1c7c:	fc 01       	movw	r30, r24
    1c7e:	84 85       	ldd	r24, Z+12	; 0x0c
    1c80:	95 85       	ldd	r25, Z+13	; 0x0d
    1c82:	97 ff       	sbrs	r25, 7
    1c84:	0e c0       	rjmp	.+28     	;  0x1ca2
    1c86:	ce 01       	movw	r24, r28
    1c88:	01 96       	adiw	r24, 0x01	; 1
    1c8a:	0e 94 26 0c 	call	0x184c	;  0x184c
    1c8e:	01 97       	sbiw	r24, 0x01	; 1
    1c90:	19 f4       	brne	.+6      	;  0x1c98
    1c92:	29 81       	ldd	r18, Y+1	; 0x01
    1c94:	30 e0       	ldi	r19, 0x00	; 0
    1c96:	02 c0       	rjmp	.+4      	;  0x1c9c
    1c98:	2f ef       	ldi	r18, 0xFF	; 255
    1c9a:	3f ef       	ldi	r19, 0xFF	; 255
    1c9c:	f8 01       	movw	r30, r16
    1c9e:	35 87       	std	Z+13, r19	; 0x0d
    1ca0:	24 87       	std	Z+12, r18	; 0x0c
    1ca2:	f8 01       	movw	r30, r16
    1ca4:	84 85       	ldd	r24, Z+12	; 0x0c
    1ca6:	95 85       	ldd	r25, Z+13	; 0x0d
    1ca8:	0f 90       	pop	r0
    1caa:	df 91       	pop	r29
    1cac:	cf 91       	pop	r28
    1cae:	1f 91       	pop	r17
    1cb0:	0f 91       	pop	r16
    1cb2:	08 95       	ret
    1cb4:	1f 92       	push	r1
    1cb6:	0f 92       	push	r0
    1cb8:	0f b6       	in	r0, 0x3f	; 63
    1cba:	0f 92       	push	r0
    1cbc:	11 24       	eor	r1, r1
    1cbe:	8f 93       	push	r24
    1cc0:	9f 93       	push	r25
    1cc2:	80 91 e1 00 	lds	r24, 0x00E1	;  0x8000e1
    1cc6:	90 91 e1 00 	lds	r25, 0x00E1	;  0x8000e1
    1cca:	93 7f       	andi	r25, 0xF3	; 243
    1ccc:	90 93 e1 00 	sts	0x00E1, r25	;  0x8000e1
    1cd0:	83 ff       	sbrs	r24, 3
    1cd2:	0f c0       	rjmp	.+30     	;  0x1cf2
    1cd4:	10 92 e9 00 	sts	0x00E9, r1	;  0x8000e9
    1cd8:	91 e0       	ldi	r25, 0x01	; 1
    1cda:	90 93 eb 00 	sts	0x00EB, r25	;  0x8000eb
    1cde:	10 92 ec 00 	sts	0x00EC, r1	;  0x8000ec
    1ce2:	92 e3       	ldi	r25, 0x32	; 50
    1ce4:	90 93 ed 00 	sts	0x00ED, r25	;  0x8000ed
    1ce8:	10 92 02 03 	sts	0x0302, r1	;  0x800302
    1cec:	98 e0       	ldi	r25, 0x08	; 8
    1cee:	90 93 f0 00 	sts	0x00F0, r25	;  0x8000f0
    1cf2:	82 ff       	sbrs	r24, 2
    1cf4:	1c c0       	rjmp	.+56     	;  0x1d2e
    1cf6:	93 e0       	ldi	r25, 0x03	; 3
    1cf8:	90 93 e9 00 	sts	0x00E9, r25	;  0x8000e9
    1cfc:	90 91 f2 00 	lds	r25, 0x00F2	;  0x8000f2
    1d00:	99 23       	and	r25, r25
    1d02:	19 f0       	breq	.+6      	;  0x1d0a
    1d04:	9a e3       	ldi	r25, 0x3A	; 58
    1d06:	90 93 e8 00 	sts	0x00E8, r25	;  0x8000e8
    1d0a:	90 91 19 03 	lds	r25, 0x0319	;  0x800319
    1d0e:	99 23       	and	r25, r25
    1d10:	29 f0       	breq	.+10     	;  0x1d1c
    1d12:	90 91 19 03 	lds	r25, 0x0319	;  0x800319
    1d16:	91 50       	subi	r25, 0x01	; 1
    1d18:	90 93 19 03 	sts	0x0319, r25	;  0x800319
    1d1c:	90 91 01 03 	lds	r25, 0x0301	;  0x800301
    1d20:	99 23       	and	r25, r25
    1d22:	29 f0       	breq	.+10     	;  0x1d2e
    1d24:	90 91 01 03 	lds	r25, 0x0301	;  0x800301
    1d28:	91 50       	subi	r25, 0x01	; 1
    1d2a:	90 93 01 03 	sts	0x0301, r25	;  0x800301
    1d2e:	84 ff       	sbrs	r24, 4
    1d30:	10 c0       	rjmp	.+32     	;  0x1d52
    1d32:	80 91 e2 00 	lds	r24, 0x00E2	;  0x8000e2
    1d36:	8e 7e       	andi	r24, 0xEE	; 238
    1d38:	81 60       	ori	r24, 0x01	; 1
    1d3a:	80 93 e2 00 	sts	0x00E2, r24	;  0x8000e2
    1d3e:	80 91 e1 00 	lds	r24, 0x00E1	;  0x8000e1
    1d42:	8f 7e       	andi	r24, 0xEF	; 239
    1d44:	80 93 e1 00 	sts	0x00E1, r24	;  0x8000e1
    1d48:	80 91 91 02 	lds	r24, 0x0291	;  0x800291
    1d4c:	8e 7e       	andi	r24, 0xEE	; 238
    1d4e:	80 61       	ori	r24, 0x10	; 16
    1d50:	11 c0       	rjmp	.+34     	;  0x1d74
    1d52:	80 ff       	sbrs	r24, 0
    1d54:	11 c0       	rjmp	.+34     	;  0x1d78
    1d56:	80 91 e2 00 	lds	r24, 0x00E2	;  0x8000e2
    1d5a:	8e 7e       	andi	r24, 0xEE	; 238
    1d5c:	80 61       	ori	r24, 0x10	; 16
    1d5e:	80 93 e2 00 	sts	0x00E2, r24	;  0x8000e2
    1d62:	80 91 e1 00 	lds	r24, 0x00E1	;  0x8000e1
    1d66:	8e 7e       	andi	r24, 0xEE	; 238
    1d68:	80 93 e1 00 	sts	0x00E1, r24	;  0x8000e1
    1d6c:	80 91 91 02 	lds	r24, 0x0291	;  0x800291
    1d70:	8e 7e       	andi	r24, 0xEE	; 238
    1d72:	81 60       	ori	r24, 0x01	; 1
    1d74:	80 93 91 02 	sts	0x0291, r24	;  0x800291
    1d78:	9f 91       	pop	r25
    1d7a:	8f 91       	pop	r24
    1d7c:	0f 90       	pop	r0
    1d7e:	0f be       	out	0x3f, r0	; 63
    1d80:	0f 90       	pop	r0
    1d82:	1f 90       	pop	r1
    1d84:	18 95       	reti
    1d86:	1f 92       	push	r1
    1d88:	0f 92       	push	r0
    1d8a:	0f b6       	in	r0, 0x3f	; 63
    1d8c:	0f 92       	push	r0
    1d8e:	11 24       	eor	r1, r1
    1d90:	cf 92       	push	r12
    1d92:	df 92       	push	r13
    1d94:	ef 92       	push	r14
    1d96:	ff 92       	push	r15
    1d98:	0f 93       	push	r16
    1d9a:	1f 93       	push	r17
    1d9c:	2f 93       	push	r18
    1d9e:	3f 93       	push	r19
    1da0:	4f 93       	push	r20
    1da2:	5f 93       	push	r21
    1da4:	6f 93       	push	r22
    1da6:	7f 93       	push	r23
    1da8:	8f 93       	push	r24
    1daa:	9f 93       	push	r25
    1dac:	af 93       	push	r26
    1dae:	bf 93       	push	r27
    1db0:	ef 93       	push	r30
    1db2:	ff 93       	push	r31
    1db4:	cf 93       	push	r28
    1db6:	df 93       	push	r29
    1db8:	cd b7       	in	r28, 0x3d	; 61
    1dba:	de b7       	in	r29, 0x3e	; 62
    1dbc:	6c 97       	sbiw	r28, 0x1c	; 28
    1dbe:	de bf       	out	0x3e, r29	; 62
    1dc0:	cd bf       	out	0x3d, r28	; 61
    1dc2:	10 92 e9 00 	sts	0x00E9, r1	;  0x8000e9
    1dc6:	80 91 e8 00 	lds	r24, 0x00E8	;  0x8000e8
    1dca:	83 ff       	sbrs	r24, 3
    1dcc:	0c c2       	rjmp	.+1048   	;  0x21e6
    1dce:	fe 01       	movw	r30, r28
    1dd0:	75 96       	adiw	r30, 0x15	; 21
    1dd2:	de 2e       	mov	r13, r30
    1dd4:	cf 2e       	mov	r12, r31
    1dd6:	88 e0       	ldi	r24, 0x08	; 8
    1dd8:	8e 0f       	add	r24, r30
    1dda:	8e 17       	cp	r24, r30
    1ddc:	29 f0       	breq	.+10     	;  0x1de8
    1dde:	90 91 f1 00 	lds	r25, 0x00F1	;  0x8000f1
    1de2:	90 83       	st	Z, r25
    1de4:	31 96       	adiw	r30, 0x01	; 1
    1de6:	f9 cf       	rjmp	.-14     	;  0x1dda
    1de8:	84 e6       	ldi	r24, 0x64	; 100
    1dea:	80 93 01 03 	sts	0x0301, r24	;  0x800301
    1dee:	82 ef       	ldi	r24, 0xF2	; 242
    1df0:	80 93 e8 00 	sts	0x00E8, r24	;  0x8000e8
    1df4:	8d 89       	ldd	r24, Y+21	; 0x15
    1df6:	87 ff       	sbrs	r24, 7
    1df8:	05 c0       	rjmp	.+10     	;  0x1e04
    1dfa:	90 91 e8 00 	lds	r25, 0x00E8	;  0x8000e8
    1dfe:	90 ff       	sbrs	r25, 0
    1e00:	fc cf       	rjmp	.-8      	;  0x1dfa
    1e02:	03 c0       	rjmp	.+6      	;  0x1e0a
    1e04:	9e ef       	ldi	r25, 0xFE	; 254
    1e06:	90 93 e8 00 	sts	0x00E8, r25	;  0x8000e8
    1e0a:	98 2f       	mov	r25, r24
    1e0c:	90 76       	andi	r25, 0x60	; 96
    1e0e:	09 f0       	breq	.+2      	;  0x1e12
    1e10:	c5 c0       	rjmp	.+394    	;  0x1f9c
    1e12:	9e 89       	ldd	r25, Y+22	; 0x16
    1e14:	2f 89       	ldd	r18, Y+23	; 0x17
    1e16:	18 8d       	ldd	r17, Y+24	; 0x18
    1e18:	91 11       	cpse	r25, r1
    1e1a:	0c c0       	rjmp	.+24     	;  0x1e34
    1e1c:	80 38       	cpi	r24, 0x80	; 128
    1e1e:	29 f4       	brne	.+10     	;  0x1e2a
    1e20:	80 91 92 02 	lds	r24, 0x0292	;  0x800292
    1e24:	80 93 f1 00 	sts	0x00F1, r24	;  0x8000f1
    1e28:	02 c0       	rjmp	.+4      	;  0x1e2e
    1e2a:	10 92 f1 00 	sts	0x00F1, r1	;  0x8000f1
    1e2e:	10 92 f1 00 	sts	0x00F1, r1	;  0x8000f1
    1e32:	4e c1       	rjmp	.+668    	;  0x20d0
    1e34:	42 2f       	mov	r20, r18
    1e36:	50 e0       	ldi	r21, 0x00	; 0
    1e38:	51 2b       	or	r21, r17
    1e3a:	91 30       	cpi	r25, 0x01	; 1
    1e3c:	51 f4       	brne	.+20     	;  0x1e52
    1e3e:	81 11       	cpse	r24, r1
    1e40:	47 c1       	rjmp	.+654    	;  0x20d0
    1e42:	41 30       	cpi	r20, 0x01	; 1
    1e44:	51 05       	cpc	r21, r1
    1e46:	09 f0       	breq	.+2      	;  0x1e4a
    1e48:	43 c1       	rjmp	.+646    	;  0x20d0
    1e4a:	80 91 92 02 	lds	r24, 0x0292	;  0x800292
    1e4e:	8d 7f       	andi	r24, 0xFD	; 253
    1e50:	0b c0       	rjmp	.+22     	;  0x1e68
    1e52:	93 30       	cpi	r25, 0x03	; 3
    1e54:	61 f4       	brne	.+24     	;  0x1e6e
    1e56:	81 11       	cpse	r24, r1
    1e58:	3b c1       	rjmp	.+630    	;  0x20d0
    1e5a:	41 30       	cpi	r20, 0x01	; 1
    1e5c:	51 05       	cpc	r21, r1
    1e5e:	09 f0       	breq	.+2      	;  0x1e62
    1e60:	37 c1       	rjmp	.+622    	;  0x20d0
    1e62:	80 91 92 02 	lds	r24, 0x0292	;  0x800292
    1e66:	82 60       	ori	r24, 0x02	; 2
    1e68:	80 93 92 02 	sts	0x0292, r24	;  0x800292
    1e6c:	31 c1       	rjmp	.+610    	;  0x20d0
    1e6e:	95 30       	cpi	r25, 0x05	; 5
    1e70:	41 f4       	brne	.+16     	;  0x1e82
    1e72:	80 91 e8 00 	lds	r24, 0x00E8	;  0x8000e8
    1e76:	80 ff       	sbrs	r24, 0
    1e78:	fc cf       	rjmp	.-8      	;  0x1e72
    1e7a:	20 68       	ori	r18, 0x80	; 128
    1e7c:	20 93 e3 00 	sts	0x00E3, r18	;  0x8000e3
    1e80:	27 c1       	rjmp	.+590    	;  0x20d0
    1e82:	96 30       	cpi	r25, 0x06	; 6
    1e84:	09 f0       	breq	.+2      	;  0x1e88
    1e86:	5e c0       	rjmp	.+188    	;  0x1f44
    1e88:	eb 8c       	ldd	r14, Y+27	; 0x1b
    1e8a:	fc 8c       	ldd	r15, Y+28	; 0x1c
    1e8c:	10 92 e9 00 	sts	0x00E9, r1	;  0x8000e9
    1e90:	10 92 18 03 	sts	0x0318, r1	;  0x800318
    1e94:	10 92 17 03 	sts	0x0317, r1	;  0x800317
    1e98:	12 30       	cpi	r17, 0x02	; 2
    1e9a:	91 f5       	brne	.+100    	;  0x1f00
    1e9c:	10 92 16 03 	sts	0x0316, r1	;  0x800316
    1ea0:	10 92 15 03 	sts	0x0315, r1	;  0x800315
    1ea4:	0e 94 5b 0d 	call	0x1ab6	;  0x1ab6
    1ea8:	99 e0       	ldi	r25, 0x09	; 9
    1eaa:	be 01       	movw	r22, r28
    1eac:	6f 5f       	subi	r22, 0xFF	; 255
    1eae:	7f 4f       	sbci	r23, 0xFF	; 255
    1eb0:	db 01       	movw	r26, r22
    1eb2:	e9 2f       	mov	r30, r25
    1eb4:	1d 92       	st	X+, r1
    1eb6:	ea 95       	dec	r30
    1eb8:	e9 f7       	brne	.-6      	;  0x1eb4
    1eba:	99 83       	std	Y+1, r25	; 0x01
    1ebc:	1a 83       	std	Y+2, r17	; 0x02
    1ebe:	91 e0       	ldi	r25, 0x01	; 1
    1ec0:	9e 83       	std	Y+6, r25	; 0x06
    1ec2:	90 ea       	ldi	r25, 0xA0	; 160
    1ec4:	98 87       	std	Y+8, r25	; 0x08
    1ec6:	9a ef       	ldi	r25, 0xFA	; 250
    1ec8:	99 87       	std	Y+9, r25	; 0x09
    1eca:	20 91 17 03 	lds	r18, 0x0317	;  0x800317
    1ece:	30 91 18 03 	lds	r19, 0x0318	;  0x800318
    1ed2:	27 5f       	subi	r18, 0xF7	; 247
    1ed4:	3f 4f       	sbci	r19, 0xFF	; 255
    1ed6:	3c 83       	std	Y+4, r19	; 0x04
    1ed8:	2b 83       	std	Y+3, r18	; 0x03
    1eda:	8d 83       	std	Y+5, r24	; 0x05
    1edc:	10 92 e9 00 	sts	0x00E9, r1	;  0x8000e9
    1ee0:	10 92 18 03 	sts	0x0318, r1	;  0x800318
    1ee4:	10 92 17 03 	sts	0x0317, r1	;  0x800317
    1ee8:	f0 92 16 03 	sts	0x0316, r15	;  0x800316
    1eec:	e0 92 15 03 	sts	0x0315, r14	;  0x800315
    1ef0:	49 e0       	ldi	r20, 0x09	; 9
    1ef2:	50 e0       	ldi	r21, 0x00	; 0
    1ef4:	80 e0       	ldi	r24, 0x00	; 0
    1ef6:	0e 94 ce 0c 	call	0x199c	;  0x199c
    1efa:	0e 94 5b 0d 	call	0x1ab6	;  0x1ab6
    1efe:	e8 c0       	rjmp	.+464    	;  0x20d0
    1f00:	f0 92 16 03 	sts	0x0316, r15	;  0x800316
    1f04:	e0 92 15 03 	sts	0x0315, r14	;  0x800315
    1f08:	0e 94 4f 0c 	call	0x189e	;  0x189e
    1f0c:	dc 01       	movw	r26, r24
    1f0e:	12 96       	adiw	r26, 0x02	; 2
    1f10:	ed 90       	ld	r14, X+
    1f12:	fc 90       	ld	r15, X
    1f14:	13 97       	sbiw	r26, 0x03	; 3
    1f16:	e1 14       	cp	r14, r1
    1f18:	f1 04       	cpc	r15, r1
    1f1a:	09 f4       	brne	.+2      	;  0x1f1e
    1f1c:	c7 c0       	rjmp	.+398    	;  0x20ac
    1f1e:	d7 01       	movw	r26, r14
    1f20:	ed 91       	ld	r30, X+
    1f22:	fc 91       	ld	r31, X
    1f24:	04 80       	ldd	r0, Z+4	; 0x04
    1f26:	f5 81       	ldd	r31, Z+5	; 0x05
    1f28:	e0 2d       	mov	r30, r0
    1f2a:	6d 2d       	mov	r22, r13
    1f2c:	7c 2d       	mov	r23, r12
    1f2e:	c7 01       	movw	r24, r14
    1f30:	09 95       	icall
    1f32:	00 97       	sbiw	r24, 0x00	; 0
    1f34:	19 f0       	breq	.+6      	;  0x1f3c
    1f36:	0c f0       	brlt	.+2      	;  0x1f3a
    1f38:	cb c0       	rjmp	.+406    	;  0x20d0
    1f3a:	ce c0       	rjmp	.+412    	;  0x20d8
    1f3c:	f7 01       	movw	r30, r14
    1f3e:	e0 84       	ldd	r14, Z+8	; 0x08
    1f40:	f1 84       	ldd	r15, Z+9	; 0x09
    1f42:	e9 cf       	rjmp	.-46     	;  0x1f16
    1f44:	97 30       	cpi	r25, 0x07	; 7
    1f46:	09 f4       	brne	.+2      	;  0x1f4a
    1f48:	c7 c0       	rjmp	.+398    	;  0x20d8
    1f4a:	98 30       	cpi	r25, 0x08	; 8
    1f4c:	21 f4       	brne	.+8      	;  0x1f56
    1f4e:	81 e0       	ldi	r24, 0x01	; 1
    1f50:	80 93 f1 00 	sts	0x00F1, r24	;  0x8000f1
    1f54:	bd c0       	rjmp	.+378    	;  0x20d0
    1f56:	99 30       	cpi	r25, 0x09	; 9
    1f58:	09 f0       	breq	.+2      	;  0x1f5c
    1f5a:	ba c0       	rjmp	.+372    	;  0x20d0
    1f5c:	83 70       	andi	r24, 0x03	; 3
    1f5e:	09 f0       	breq	.+2      	;  0x1f62
    1f60:	bb c0       	rjmp	.+374    	;  0x20d8
    1f62:	e4 e1       	ldi	r30, 0x14	; 20
    1f64:	f1 e0       	ldi	r31, 0x01	; 1
    1f66:	81 e0       	ldi	r24, 0x01	; 1
    1f68:	21 e0       	ldi	r18, 0x01	; 1
    1f6a:	36 e3       	ldi	r19, 0x36	; 54
    1f6c:	90 81       	ld	r25, Z
    1f6e:	99 23       	and	r25, r25
    1f70:	61 f0       	breq	.+24     	;  0x1f8a
    1f72:	80 93 e9 00 	sts	0x00E9, r24	;  0x8000e9
    1f76:	20 93 eb 00 	sts	0x00EB, r18	;  0x8000eb
    1f7a:	91 91       	ld	r25, Z+
    1f7c:	90 93 ec 00 	sts	0x00EC, r25	;  0x8000ec
    1f80:	30 93 ed 00 	sts	0x00ED, r19	;  0x8000ed
    1f84:	8f 5f       	subi	r24, 0xFF	; 255
    1f86:	87 30       	cpi	r24, 0x07	; 7
    1f88:	89 f7       	brne	.-30     	;  0x1f6c
    1f8a:	8e e7       	ldi	r24, 0x7E	; 126
    1f8c:	80 93 ea 00 	sts	0x00EA, r24	;  0x8000ea
    1f90:	10 92 ea 00 	sts	0x00EA, r1	;  0x8000ea
    1f94:	8f 89       	ldd	r24, Y+23	; 0x17
    1f96:	80 93 02 03 	sts	0x0302, r24	;  0x800302
    1f9a:	9a c0       	rjmp	.+308    	;  0x20d0
    1f9c:	8b 8d       	ldd	r24, Y+27	; 0x1b
    1f9e:	9c 8d       	ldd	r25, Y+28	; 0x1c
    1fa0:	10 92 e9 00 	sts	0x00E9, r1	;  0x8000e9
    1fa4:	10 92 18 03 	sts	0x0318, r1	;  0x800318
    1fa8:	10 92 17 03 	sts	0x0317, r1	;  0x800317
    1fac:	90 93 16 03 	sts	0x0316, r25	;  0x800316
    1fb0:	80 93 15 03 	sts	0x0315, r24	;  0x800315
    1fb4:	89 8d       	ldd	r24, Y+25	; 0x19
    1fb6:	81 11       	cpse	r24, r1
    1fb8:	5f c0       	rjmp	.+190    	;  0x2078
    1fba:	8e 89       	ldd	r24, Y+22	; 0x16
    1fbc:	9d 89       	ldd	r25, Y+21	; 0x15
    1fbe:	91 3a       	cpi	r25, 0xA1	; 161
    1fc0:	59 f4       	brne	.+22     	;  0x1fd8
    1fc2:	81 32       	cpi	r24, 0x21	; 33
    1fc4:	09 f0       	breq	.+2      	;  0x1fc8
    1fc6:	88 c0       	rjmp	.+272    	;  0x20d8
    1fc8:	47 e0       	ldi	r20, 0x07	; 7
    1fca:	50 e0       	ldi	r21, 0x00	; 0
    1fcc:	65 e0       	ldi	r22, 0x05	; 5
    1fce:	71 e0       	ldi	r23, 0x01	; 1
    1fd0:	80 e0       	ldi	r24, 0x00	; 0
    1fd2:	0e 94 ce 0c 	call	0x199c	;  0x199c
    1fd6:	7c c0       	rjmp	.+248    	;  0x20d0
    1fd8:	91 32       	cpi	r25, 0x21	; 33
    1fda:	09 f0       	breq	.+2      	;  0x1fde
    1fdc:	7d c0       	rjmp	.+250    	;  0x20d8
    1fde:	83 32       	cpi	r24, 0x23	; 35
    1fe0:	89 f4       	brne	.+34     	;  0x2004
    1fe2:	88 8d       	ldd	r24, Y+24	; 0x18
    1fe4:	90 e0       	ldi	r25, 0x00	; 0
    1fe6:	98 2f       	mov	r25, r24
    1fe8:	88 27       	eor	r24, r24
    1fea:	2f 89       	ldd	r18, Y+23	; 0x17
    1fec:	82 2b       	or	r24, r18
    1fee:	a0 e0       	ldi	r26, 0x00	; 0
    1ff0:	b0 e0       	ldi	r27, 0x00	; 0
    1ff2:	80 93 01 01 	sts	0x0101, r24	;  0x800101
    1ff6:	90 93 02 01 	sts	0x0102, r25	;  0x800102
    1ffa:	a0 93 03 01 	sts	0x0103, r26	;  0x800103
    1ffe:	b0 93 04 01 	sts	0x0104, r27	;  0x800104
    2002:	66 c0       	rjmp	.+204    	;  0x20d0
    2004:	80 32       	cpi	r24, 0x20	; 32
    2006:	b1 f4       	brne	.+44     	;  0x2034
    2008:	80 91 e8 00 	lds	r24, 0x00E8	;  0x8000e8
    200c:	82 ff       	sbrs	r24, 2
    200e:	fc cf       	rjmp	.-8      	;  0x2008
    2010:	e5 e0       	ldi	r30, 0x05	; 5
    2012:	f1 e0       	ldi	r31, 0x01	; 1
    2014:	87 e0       	ldi	r24, 0x07	; 7
    2016:	8e 0f       	add	r24, r30
    2018:	8e 17       	cp	r24, r30
    201a:	29 f0       	breq	.+10     	;  0x2026
    201c:	90 91 f1 00 	lds	r25, 0x00F1	;  0x8000f1
    2020:	90 83       	st	Z, r25
    2022:	31 96       	adiw	r30, 0x01	; 1
    2024:	f9 cf       	rjmp	.-14     	;  0x2018
    2026:	84 e6       	ldi	r24, 0x64	; 100
    2028:	80 93 01 03 	sts	0x0301, r24	;  0x800301
    202c:	8b ef       	ldi	r24, 0xFB	; 251
    202e:	80 93 e8 00 	sts	0x00E8, r24	;  0x8000e8
    2032:	06 c0       	rjmp	.+12     	;  0x2040
    2034:	82 32       	cpi	r24, 0x22	; 34
    2036:	09 f0       	breq	.+2      	;  0x203a
    2038:	4b c0       	rjmp	.+150    	;  0x20d0
    203a:	8f 89       	ldd	r24, Y+23	; 0x17
    203c:	80 93 0c 01 	sts	0x010C, r24	;  0x80010c
    2040:	80 91 90 02 	lds	r24, 0x0290	;  0x800290
    2044:	88 23       	and	r24, r24
    2046:	19 f0       	breq	.+6      	;  0x204e
    2048:	ee ef       	ldi	r30, 0xFE	; 254
    204a:	fa e0       	ldi	r31, 0x0A	; 10
    204c:	02 c0       	rjmp	.+4      	;  0x2052
    204e:	e0 e0       	ldi	r30, 0x00	; 0
    2050:	f8 e0       	ldi	r31, 0x08	; 8
    2052:	80 91 05 01 	lds	r24, 0x0105	;  0x800105
    2056:	90 91 06 01 	lds	r25, 0x0106	;  0x800106
    205a:	a0 91 07 01 	lds	r26, 0x0107	;  0x800107
    205e:	b0 91 08 01 	lds	r27, 0x0108	;  0x800108
    2062:	80 3b       	cpi	r24, 0xB0	; 176
    2064:	94 40       	sbci	r25, 0x04	; 4
    2066:	a1 05       	cpc	r26, r1
    2068:	b1 05       	cpc	r27, r1
    206a:	09 f0       	breq	.+2      	;  0x206e
    206c:	a0 c0       	rjmp	.+320    	;  0x21ae
    206e:	80 91 0c 01 	lds	r24, 0x010C	;  0x80010c
    2072:	80 ff       	sbrs	r24, 0
    2074:	83 c0       	rjmp	.+262    	;  0x217c
    2076:	9b c0       	rjmp	.+310    	;  0x21ae
    2078:	0e 94 4f 0c 	call	0x189e	;  0x189e
    207c:	dc 01       	movw	r26, r24
    207e:	12 96       	adiw	r26, 0x02	; 2
    2080:	0d 91       	ld	r16, X+
    2082:	1c 91       	ld	r17, X
    2084:	13 97       	sbiw	r26, 0x03	; 3
    2086:	01 15       	cp	r16, r1
    2088:	11 05       	cpc	r17, r1
    208a:	31 f1       	breq	.+76     	;  0x20d8
    208c:	d8 01       	movw	r26, r16
    208e:	ed 91       	ld	r30, X+
    2090:	fc 91       	ld	r31, X
    2092:	01 90       	ld	r0, Z+
    2094:	f0 81       	ld	r31, Z
    2096:	e0 2d       	mov	r30, r0
    2098:	6d 2d       	mov	r22, r13
    209a:	7c 2d       	mov	r23, r12
    209c:	c8 01       	movw	r24, r16
    209e:	09 95       	icall
    20a0:	81 11       	cpse	r24, r1
    20a2:	16 c0       	rjmp	.+44     	;  0x20d0
    20a4:	f8 01       	movw	r30, r16
    20a6:	00 85       	ldd	r16, Z+8	; 0x08
    20a8:	11 85       	ldd	r17, Z+9	; 0x09
    20aa:	ed cf       	rjmp	.-38     	;  0x2086
    20ac:	11 30       	cpi	r17, 0x01	; 1
    20ae:	c1 f0       	breq	.+48     	;  0x20e0
    20b0:	13 30       	cpi	r17, 0x03	; 3
    20b2:	91 f4       	brne	.+36     	;  0x20d8
    20b4:	8f 89       	ldd	r24, Y+23	; 0x17
    20b6:	88 23       	and	r24, r24
    20b8:	09 f4       	brne	.+2      	;  0x20bc
    20ba:	55 c0       	rjmp	.+170    	;  0x2166
    20bc:	82 30       	cpi	r24, 0x02	; 2
    20be:	e9 f4       	brne	.+58     	;  0x20fa
    20c0:	40 e8       	ldi	r20, 0x80	; 128
    20c2:	62 e1       	ldi	r22, 0x12	; 18
    20c4:	87 e0       	ldi	r24, 0x07	; 7
    20c6:	92 e0       	ldi	r25, 0x02	; 2
    20c8:	0e 94 91 0c 	call	0x1922	;  0x1922
    20cc:	88 23       	and	r24, r24
    20ce:	21 f0       	breq	.+8      	;  0x20d8
    20d0:	8e ef       	ldi	r24, 0xFE	; 254
    20d2:	80 93 e8 00 	sts	0x00E8, r24	;  0x8000e8
    20d6:	87 c0       	rjmp	.+270    	;  0x21e6
    20d8:	81 e2       	ldi	r24, 0x21	; 33
    20da:	80 93 eb 00 	sts	0x00EB, r24	;  0x8000eb
    20de:	83 c0       	rjmp	.+262    	;  0x21e6
    20e0:	8b 8d       	ldd	r24, Y+27	; 0x1b
    20e2:	9c 8d       	ldd	r25, Y+28	; 0x1c
    20e4:	08 97       	sbiw	r24, 0x08	; 8
    20e6:	11 f4       	brne	.+4      	;  0x20ec
    20e8:	10 93 14 03 	sts	0x0314, r17	;  0x800314
    20ec:	80 91 14 03 	lds	r24, 0x0314	;  0x800314
    20f0:	81 11       	cpse	r24, r1
    20f2:	36 c0       	rjmp	.+108    	;  0x2160
    20f4:	6a e1       	ldi	r22, 0x1A	; 26
    20f6:	72 e0       	ldi	r23, 0x02	; 2
    20f8:	38 c0       	rjmp	.+112    	;  0x216a
    20fa:	81 30       	cpi	r24, 0x01	; 1
    20fc:	29 f4       	brne	.+10     	;  0x2108
    20fe:	40 e8       	ldi	r20, 0x80	; 128
    2100:	68 e0       	ldi	r22, 0x08	; 8
    2102:	8e ef       	ldi	r24, 0xFE	; 254
    2104:	91 e0       	ldi	r25, 0x01	; 1
    2106:	e0 cf       	rjmp	.-64     	;  0x20c8
    2108:	83 30       	cpi	r24, 0x03	; 3
    210a:	31 f7       	brne	.-52     	;  0x20d8
    210c:	0e 94 4f 0c 	call	0x189e	;  0x189e
    2110:	dc 01       	movw	r26, r24
    2112:	12 96       	adiw	r26, 0x02	; 2
    2114:	ed 90       	ld	r14, X+
    2116:	fc 90       	ld	r15, X
    2118:	13 97       	sbiw	r26, 0x03	; 3
    211a:	8e 01       	movw	r16, r28
    211c:	0f 5f       	subi	r16, 0xFF	; 255
    211e:	1f 4f       	sbci	r17, 0xFF	; 255
    2120:	68 01       	movw	r12, r16
    2122:	e1 14       	cp	r14, r1
    2124:	f1 04       	cpc	r15, r1
    2126:	79 f0       	breq	.+30     	;  0x2146
    2128:	d7 01       	movw	r26, r14
    212a:	ed 91       	ld	r30, X+
    212c:	fc 91       	ld	r31, X
    212e:	06 80       	ldd	r0, Z+6	; 0x06
    2130:	f7 81       	ldd	r31, Z+7	; 0x07
    2132:	e0 2d       	mov	r30, r0
    2134:	b8 01       	movw	r22, r16
    2136:	c7 01       	movw	r24, r14
    2138:	09 95       	icall
    213a:	08 0f       	add	r16, r24
    213c:	11 1d       	adc	r17, r1
    213e:	f7 01       	movw	r30, r14
    2140:	e0 84       	ldd	r14, Z+8	; 0x08
    2142:	f1 84       	ldd	r15, Z+9	; 0x09
    2144:	ee cf       	rjmp	.-36     	;  0x2122
    2146:	d8 01       	movw	r26, r16
    2148:	1c 92       	st	X, r1
    214a:	f6 01       	movw	r30, r12
    214c:	01 90       	ld	r0, Z+
    214e:	00 20       	and	r0, r0
    2150:	e9 f7       	brne	.-6      	;  0x214c
    2152:	31 97       	sbiw	r30, 0x01	; 1
    2154:	bf 01       	movw	r22, r30
    2156:	6c 19       	sub	r22, r12
    2158:	7d 09       	sbc	r23, r13
    215a:	40 e0       	ldi	r20, 0x00	; 0
    215c:	c6 01       	movw	r24, r12
    215e:	b4 cf       	rjmp	.-152    	;  0x20c8
    2160:	6c e2       	ldi	r22, 0x2C	; 44
    2162:	72 e0       	ldi	r23, 0x02	; 2
    2164:	02 c0       	rjmp	.+4      	;  0x216a
    2166:	6a ef       	ldi	r22, 0xFA	; 250
    2168:	71 e0       	ldi	r23, 0x01	; 1
    216a:	61 15       	cp	r22, r1
    216c:	71 05       	cpc	r23, r1
    216e:	09 f4       	brne	.+2      	;  0x2172
    2170:	b3 cf       	rjmp	.-154    	;  0x20d8
    2172:	fb 01       	movw	r30, r22
    2174:	44 91       	lpm	r20, Z
    2176:	50 e0       	ldi	r21, 0x00	; 0
    2178:	80 e8       	ldi	r24, 0x80	; 128
    217a:	2b cf       	rjmp	.-426    	;  0x1fd2
    217c:	ee 3f       	cpi	r30, 0xFE	; 254
    217e:	2a e0       	ldi	r18, 0x0A	; 10
    2180:	f2 07       	cpc	r31, r18
    2182:	31 f0       	breq	.+12     	;  0x2190
    2184:	80 81       	ld	r24, Z
    2186:	91 81       	ldd	r25, Z+1	; 0x01
    2188:	90 93 ff 0a 	sts	0x0AFF, r25	;  0x800aff
    218c:	80 93 fe 0a 	sts	0x0AFE, r24	;  0x800afe
    2190:	87 e7       	ldi	r24, 0x77	; 119
    2192:	97 e7       	ldi	r25, 0x77	; 119
    2194:	91 83       	std	Z+1, r25	; 0x01
    2196:	80 83       	st	Z, r24
    2198:	9b e0       	ldi	r25, 0x0B	; 11
    219a:	88 e1       	ldi	r24, 0x18	; 24
    219c:	0f b6       	in	r0, 0x3f	; 63
    219e:	f8 94       	cli
    21a0:	a8 95       	wdr
    21a2:	80 93 60 00 	sts	0x0060, r24	;  0x800060
    21a6:	0f be       	out	0x3f, r0	; 63
    21a8:	90 93 60 00 	sts	0x0060, r25	;  0x800060
    21ac:	91 cf       	rjmp	.-222    	;  0x20d0
    21ae:	0f b6       	in	r0, 0x3f	; 63
    21b0:	f8 94       	cli
    21b2:	a8 95       	wdr
    21b4:	80 91 60 00 	lds	r24, 0x0060	;  0x800060
    21b8:	88 61       	ori	r24, 0x18	; 24
    21ba:	80 93 60 00 	sts	0x0060, r24	;  0x800060
    21be:	10 92 60 00 	sts	0x0060, r1	;  0x800060
    21c2:	0f be       	out	0x3f, r0	; 63
    21c4:	a8 95       	wdr
    21c6:	ee 3f       	cpi	r30, 0xFE	; 254
    21c8:	8a e0       	ldi	r24, 0x0A	; 10
    21ca:	f8 07       	cpc	r31, r24
    21cc:	39 f0       	breq	.+14     	;  0x21dc
    21ce:	80 91 fe 0a 	lds	r24, 0x0AFE	;  0x800afe
    21d2:	90 91 ff 0a 	lds	r25, 0x0AFF	;  0x800aff
    21d6:	91 83       	std	Z+1, r25	; 0x01
    21d8:	80 83       	st	Z, r24
    21da:	7a cf       	rjmp	.-268    	;  0x20d0
    21dc:	10 92 ff 0a 	sts	0x0AFF, r1	;  0x800aff
    21e0:	10 92 fe 0a 	sts	0x0AFE, r1	;  0x800afe
    21e4:	75 cf       	rjmp	.-278    	;  0x20d0
    21e6:	6c 96       	adiw	r28, 0x1c	; 28
    21e8:	0f b6       	in	r0, 0x3f	; 63
    21ea:	f8 94       	cli
    21ec:	de bf       	out	0x3e, r29	; 62
    21ee:	0f be       	out	0x3f, r0	; 63
    21f0:	cd bf       	out	0x3d, r28	; 61
    21f2:	df 91       	pop	r29
    21f4:	cf 91       	pop	r28
    21f6:	ff 91       	pop	r31
    21f8:	ef 91       	pop	r30
    21fa:	bf 91       	pop	r27
    21fc:	af 91       	pop	r26
    21fe:	9f 91       	pop	r25
    2200:	8f 91       	pop	r24
    2202:	7f 91       	pop	r23
    2204:	6f 91       	pop	r22
    2206:	5f 91       	pop	r21
    2208:	4f 91       	pop	r20
    220a:	3f 91       	pop	r19
    220c:	2f 91       	pop	r18
    220e:	1f 91       	pop	r17
    2210:	0f 91       	pop	r16
    2212:	ff 90       	pop	r15
    2214:	ef 90       	pop	r14
    2216:	df 90       	pop	r13
    2218:	cf 90       	pop	r12
    221a:	0f 90       	pop	r0
    221c:	0f be       	out	0x3f, r0	; 63
    221e:	0f 90       	pop	r0
    2220:	1f 90       	pop	r1
    2222:	18 95       	reti
    2224:	1f 92       	push	r1
    2226:	0f 92       	push	r0
    2228:	0f b6       	in	r0, 0x3f	; 63
    222a:	0f 92       	push	r0
    222c:	11 24       	eor	r1, r1
    222e:	2f 93       	push	r18
    2230:	3f 93       	push	r19
    2232:	8f 93       	push	r24
    2234:	9f 93       	push	r25
    2236:	af 93       	push	r26
    2238:	bf 93       	push	r27
    223a:	ef 93       	push	r30
    223c:	ff 93       	push	r31
    223e:	80 91 96 02 	lds	r24, 0x0296	;  0x800296
    2242:	90 91 97 02 	lds	r25, 0x0297	;  0x800297
    2246:	a0 91 98 02 	lds	r26, 0x0298	;  0x800298
    224a:	b0 91 99 02 	lds	r27, 0x0299	;  0x800299
    224e:	89 2b       	or	r24, r25
    2250:	8a 2b       	or	r24, r26
    2252:	8b 2b       	or	r24, r27
    2254:	51 f1       	breq	.+84     	;  0x22aa
    2256:	80 91 93 02 	lds	r24, 0x0293	;  0x800293
    225a:	e0 91 94 02 	lds	r30, 0x0294	;  0x800294
    225e:	f0 91 95 02 	lds	r31, 0x0295	;  0x800295
    2262:	90 81       	ld	r25, Z
    2264:	89 27       	eor	r24, r25
    2266:	80 83       	st	Z, r24
    2268:	80 91 96 02 	lds	r24, 0x0296	;  0x800296
    226c:	90 91 97 02 	lds	r25, 0x0297	;  0x800297
    2270:	a0 91 98 02 	lds	r26, 0x0298	;  0x800298
    2274:	b0 91 99 02 	lds	r27, 0x0299	;  0x800299
    2278:	18 16       	cp	r1, r24
    227a:	19 06       	cpc	r1, r25
    227c:	1a 06       	cpc	r1, r26
    227e:	1b 06       	cpc	r1, r27
    2280:	4c f5       	brge	.+82     	;  0x22d4
    2282:	80 91 96 02 	lds	r24, 0x0296	;  0x800296
    2286:	90 91 97 02 	lds	r25, 0x0297	;  0x800297
    228a:	a0 91 98 02 	lds	r26, 0x0298	;  0x800298
    228e:	b0 91 99 02 	lds	r27, 0x0299	;  0x800299
    2292:	01 97       	sbiw	r24, 0x01	; 1
    2294:	a1 09       	sbc	r26, r1
    2296:	b1 09       	sbc	r27, r1
    2298:	80 93 96 02 	sts	0x0296, r24	;  0x800296
    229c:	90 93 97 02 	sts	0x0297, r25	;  0x800297
    22a0:	a0 93 98 02 	sts	0x0298, r26	;  0x800298
    22a4:	b0 93 99 02 	sts	0x0299, r27	;  0x800299
    22a8:	15 c0       	rjmp	.+42     	;  0x22d4
    22aa:	80 91 71 00 	lds	r24, 0x0071	;  0x800071
    22ae:	8d 7f       	andi	r24, 0xFD	; 253
    22b0:	80 93 71 00 	sts	0x0071, r24	;  0x800071
    22b4:	90 91 93 02 	lds	r25, 0x0293	;  0x800293
    22b8:	e0 91 94 02 	lds	r30, 0x0294	;  0x800294
    22bc:	f0 91 95 02 	lds	r31, 0x0295	;  0x800295
    22c0:	80 81       	ld	r24, Z
    22c2:	28 2f       	mov	r18, r24
    22c4:	30 e0       	ldi	r19, 0x00	; 0
    22c6:	89 2f       	mov	r24, r25
    22c8:	90 e0       	ldi	r25, 0x00	; 0
    22ca:	80 95       	com	r24
    22cc:	90 95       	com	r25
    22ce:	82 23       	and	r24, r18
    22d0:	93 23       	and	r25, r19
    22d2:	80 83       	st	Z, r24
    22d4:	ff 91       	pop	r31
    22d6:	ef 91       	pop	r30
    22d8:	bf 91       	pop	r27
    22da:	af 91       	pop	r26
    22dc:	9f 91       	pop	r25
    22de:	8f 91       	pop	r24
    22e0:	3f 91       	pop	r19
    22e2:	2f 91       	pop	r18
    22e4:	0f 90       	pop	r0
    22e6:	0f be       	out	0x3f, r0	; 63
    22e8:	0f 90       	pop	r0
    22ea:	1f 90       	pop	r1
    22ec:	18 95       	reti
    22ee:	cf 93       	push	r28
    22f0:	df 93       	push	r29
    22f2:	28 2f       	mov	r18, r24
    22f4:	30 e0       	ldi	r19, 0x00	; 0
    22f6:	f9 01       	movw	r30, r18
    22f8:	e7 56       	subi	r30, 0x67	; 103
    22fa:	fe 4f       	sbci	r31, 0xFE	; 254
    22fc:	84 91       	lpm	r24, Z
    22fe:	f9 01       	movw	r30, r18
    2300:	e1 5c       	subi	r30, 0xC1	; 193
    2302:	fe 4f       	sbci	r31, 0xFE	; 254
    2304:	d4 91       	lpm	r29, Z
    2306:	f9 01       	movw	r30, r18
    2308:	e4 59       	subi	r30, 0x94	; 148
    230a:	fe 4f       	sbci	r31, 0xFE	; 254
    230c:	c4 91       	lpm	r28, Z
    230e:	cc 23       	and	r28, r28
    2310:	91 f0       	breq	.+36     	;  0x2336
    2312:	81 11       	cpse	r24, r1
    2314:	0e 94 29 02 	call	0x452	;  0x452
    2318:	ec 2f       	mov	r30, r28
    231a:	f0 e0       	ldi	r31, 0x00	; 0
    231c:	ee 0f       	add	r30, r30
    231e:	ff 1f       	adc	r31, r31
    2320:	e5 57       	subi	r30, 0x75	; 117
    2322:	fe 4f       	sbci	r31, 0xFE	; 254
    2324:	a5 91       	lpm	r26, Z+
    2326:	b4 91       	lpm	r27, Z
    2328:	ec 91       	ld	r30, X
    232a:	ed 23       	and	r30, r29
    232c:	81 e0       	ldi	r24, 0x01	; 1
    232e:	90 e0       	ldi	r25, 0x00	; 0
    2330:	21 f4       	brne	.+8      	;  0x233a
    2332:	80 e0       	ldi	r24, 0x00	; 0
    2334:	02 c0       	rjmp	.+4      	;  0x233a
    2336:	80 e0       	ldi	r24, 0x00	; 0
    2338:	90 e0       	ldi	r25, 0x00	; 0
    233a:	df 91       	pop	r29
    233c:	cf 91       	pop	r28
    233e:	08 95       	ret
    2340:	0f 93       	push	r16
    2342:	1f 93       	push	r17
    2344:	cf 93       	push	r28
    2346:	df 93       	push	r29
    2348:	cd b7       	in	r28, 0x3d	; 61
    234a:	de b7       	in	r29, 0x3e	; 62
    234c:	29 97       	sbiw	r28, 0x09	; 9
    234e:	0f b6       	in	r0, 0x3f	; 63
    2350:	f8 94       	cli
    2352:	de bf       	out	0x3e, r29	; 62
    2354:	0f be       	out	0x3f, r0	; 63
    2356:	cd bf       	out	0x3d, r28	; 61
    2358:	80 91 eb 03 	lds	r24, 0x03EB	;  0x8003eb
    235c:	90 91 ec 03 	lds	r25, 0x03EC	;  0x8003ec
    2360:	89 2b       	or	r24, r25
    2362:	09 f4       	brne	.+2      	;  0x2366
    2364:	22 c1       	rjmp	.+580    	;  0x25aa
    2366:	0e 94 fd 02 	call	0x5fa	;  0x5fa
    236a:	00 91 f1 03 	lds	r16, 0x03F1	;  0x8003f1
    236e:	10 91 f2 03 	lds	r17, 0x03F2	;  0x8003f2
    2372:	20 91 f3 03 	lds	r18, 0x03F3	;  0x8003f3
    2376:	30 91 f4 03 	lds	r19, 0x03F4	;  0x8003f4
    237a:	dc 01       	movw	r26, r24
    237c:	cb 01       	movw	r24, r22
    237e:	80 1b       	sub	r24, r16
    2380:	91 0b       	sbc	r25, r17
    2382:	a2 0b       	sbc	r26, r18
    2384:	b3 0b       	sbc	r27, r19
    2386:	c2 97       	sbiw	r24, 0x32	; 50
    2388:	a1 05       	cpc	r26, r1
    238a:	b1 05       	cpc	r27, r1
    238c:	60 f3       	brcs	.-40     	;  0x2366
    238e:	f8 94       	cli
    2390:	80 91 e7 03 	lds	r24, 0x03E7	;  0x8003e7
    2394:	90 91 e8 03 	lds	r25, 0x03E8	;  0x8003e8
    2398:	9a 83       	std	Y+2, r25	; 0x02
    239a:	89 83       	std	Y+1, r24	; 0x01
    239c:	e0 91 eb 03 	lds	r30, 0x03EB	;  0x8003eb
    23a0:	f0 91 ec 03 	lds	r31, 0x03EC	;  0x8003ec
    23a4:	df 01       	movw	r26, r30
    23a6:	11 96       	adiw	r26, 0x01	; 1
    23a8:	80 81       	ld	r24, Z
    23aa:	89 87       	std	Y+9, r24	; 0x09
    23ac:	80 91 e3 03 	lds	r24, 0x03E3	;  0x8003e3
    23b0:	e0 91 f5 03 	lds	r30, 0x03F5	;  0x8003f5
    23b4:	f0 91 f6 03 	lds	r31, 0x03F6	;  0x8003f6
    23b8:	88 23       	and	r24, r24
    23ba:	09 f4       	brne	.+2      	;  0x23be
    23bc:	bb c0       	rjmp	.+374    	;  0x2534
    23be:	1b 82       	std	Y+3, r1	; 0x03
    23c0:	eb 32       	cpi	r30, 0x2B	; 43
    23c2:	f1 05       	cpc	r31, r1
    23c4:	09 f0       	breq	.+2      	;  0x23c8
    23c6:	58 c0       	rjmp	.+176    	;  0x2478
    23c8:	9b b1       	in	r25, 0x0b	; 11
    23ca:	80 91 f7 03 	lds	r24, 0x03F7	;  0x8003f7
    23ce:	98 2b       	or	r25, r24
    23d0:	98 87       	std	Y+8, r25	; 0x08
    23d2:	9b b1       	in	r25, 0x0b	; 11
    23d4:	80 95       	com	r24
    23d6:	89 23       	and	r24, r25
    23d8:	8f 83       	std	Y+7, r24	; 0x07
    23da:	8f 81       	ldd	r24, Y+7	; 0x07
    23dc:	8c 83       	std	Y+4, r24	; 0x04
    23de:	89 85       	ldd	r24, Y+9	; 0x09
    23e0:	87 ff       	sbrs	r24, 7
    23e2:	02 c0       	rjmp	.+4      	;  0x23e8
    23e4:	88 85       	ldd	r24, Y+8	; 0x08
    23e6:	8c 83       	std	Y+4, r24	; 0x04
    23e8:	58 85       	ldd	r21, Y+8	; 0x08
    23ea:	6f 81       	ldd	r22, Y+7	; 0x07
    23ec:	49 85       	ldd	r20, Y+9	; 0x09
    23ee:	3c 81       	ldd	r19, Y+4	; 0x04
    23f0:	2b 81       	ldd	r18, Y+3	; 0x03
    23f2:	89 81       	ldd	r24, Y+1	; 0x01
    23f4:	9a 81       	ldd	r25, Y+2	; 0x02
    23f6:	5b b9       	out	0x0b, r21	; 11
    23f8:	26 2f       	mov	r18, r22
    23fa:	3b b9       	out	0x0b, r19	; 11
    23fc:	00 c0       	rjmp	.+0      	;  0x23fe
    23fe:	46 fd       	sbrc	r20, 6
    2400:	25 2f       	mov	r18, r21
    2402:	6b b9       	out	0x0b, r22	; 11
    2404:	00 c0       	rjmp	.+0      	;  0x2406
    2406:	5b b9       	out	0x0b, r21	; 11
    2408:	36 2f       	mov	r19, r22
    240a:	2b b9       	out	0x0b, r18	; 11
    240c:	00 c0       	rjmp	.+0      	;  0x240e
    240e:	45 fd       	sbrc	r20, 5
    2410:	35 2f       	mov	r19, r21
    2412:	6b b9       	out	0x0b, r22	; 11
    2414:	00 c0       	rjmp	.+0      	;  0x2416
    2416:	5b b9       	out	0x0b, r21	; 11
    2418:	26 2f       	mov	r18, r22
    241a:	3b b9       	out	0x0b, r19	; 11
    241c:	00 c0       	rjmp	.+0      	;  0x241e
    241e:	44 fd       	sbrc	r20, 4
    2420:	25 2f       	mov	r18, r21
    2422:	6b b9       	out	0x0b, r22	; 11
    2424:	00 c0       	rjmp	.+0      	;  0x2426
    2426:	5b b9       	out	0x0b, r21	; 11
    2428:	36 2f       	mov	r19, r22
    242a:	2b b9       	out	0x0b, r18	; 11
    242c:	00 c0       	rjmp	.+0      	;  0x242e
    242e:	43 fd       	sbrc	r20, 3
    2430:	35 2f       	mov	r19, r21
    2432:	6b b9       	out	0x0b, r22	; 11
    2434:	00 c0       	rjmp	.+0      	;  0x2436
    2436:	5b b9       	out	0x0b, r21	; 11
    2438:	26 2f       	mov	r18, r22
    243a:	3b b9       	out	0x0b, r19	; 11
    243c:	00 c0       	rjmp	.+0      	;  0x243e
    243e:	42 fd       	sbrc	r20, 2
    2440:	25 2f       	mov	r18, r21
    2442:	6b b9       	out	0x0b, r22	; 11
    2444:	00 c0       	rjmp	.+0      	;  0x2446
    2446:	5b b9       	out	0x0b, r21	; 11
    2448:	36 2f       	mov	r19, r22
    244a:	2b b9       	out	0x0b, r18	; 11
    244c:	00 c0       	rjmp	.+0      	;  0x244e
    244e:	41 fd       	sbrc	r20, 1
    2450:	35 2f       	mov	r19, r21
    2452:	6b b9       	out	0x0b, r22	; 11
    2454:	00 c0       	rjmp	.+0      	;  0x2456
    2456:	5b b9       	out	0x0b, r21	; 11
    2458:	26 2f       	mov	r18, r22
    245a:	3b b9       	out	0x0b, r19	; 11
    245c:	00 c0       	rjmp	.+0      	;  0x245e
    245e:	40 fd       	sbrc	r20, 0
    2460:	25 2f       	mov	r18, r21
    2462:	6b b9       	out	0x0b, r22	; 11
    2464:	01 97       	sbiw	r24, 0x01	; 1
    2466:	5b b9       	out	0x0b, r21	; 11
    2468:	36 2f       	mov	r19, r22
    246a:	2b b9       	out	0x0b, r18	; 11
    246c:	4d 91       	ld	r20, X+
    246e:	47 fd       	sbrc	r20, 7
    2470:	35 2f       	mov	r19, r21
    2472:	6b b9       	out	0x0b, r22	; 11
    2474:	01 f6       	brne	.-128    	;  0x23f6
    2476:	5a c0       	rjmp	.+180    	;  0x252c
    2478:	b5 97       	sbiw	r30, 0x25	; 37
    247a:	09 f0       	breq	.+2      	;  0x247e
    247c:	8b c0       	rjmp	.+278    	;  0x2594
    247e:	95 b1       	in	r25, 0x05	; 5
    2480:	80 91 f7 03 	lds	r24, 0x03F7	;  0x8003f7
    2484:	98 2b       	or	r25, r24
    2486:	98 87       	std	Y+8, r25	; 0x08
    2488:	95 b1       	in	r25, 0x05	; 5
    248a:	80 95       	com	r24
    248c:	89 23       	and	r24, r25
    248e:	8f 83       	std	Y+7, r24	; 0x07
    2490:	8f 81       	ldd	r24, Y+7	; 0x07
    2492:	8c 83       	std	Y+4, r24	; 0x04
    2494:	89 85       	ldd	r24, Y+9	; 0x09
    2496:	87 ff       	sbrs	r24, 7
    2498:	02 c0       	rjmp	.+4      	;  0x249e
    249a:	88 85       	ldd	r24, Y+8	; 0x08
    249c:	8c 83       	std	Y+4, r24	; 0x04
    249e:	58 85       	ldd	r21, Y+8	; 0x08
    24a0:	6f 81       	ldd	r22, Y+7	; 0x07
    24a2:	49 85       	ldd	r20, Y+9	; 0x09
    24a4:	3c 81       	ldd	r19, Y+4	; 0x04
    24a6:	2b 81       	ldd	r18, Y+3	; 0x03
    24a8:	89 81       	ldd	r24, Y+1	; 0x01
    24aa:	9a 81       	ldd	r25, Y+2	; 0x02
    24ac:	55 b9       	out	0x05, r21	; 5
    24ae:	26 2f       	mov	r18, r22
    24b0:	35 b9       	out	0x05, r19	; 5
    24b2:	00 c0       	rjmp	.+0      	;  0x24b4
    24b4:	46 fd       	sbrc	r20, 6
    24b6:	25 2f       	mov	r18, r21
    24b8:	65 b9       	out	0x05, r22	; 5
    24ba:	00 c0       	rjmp	.+0      	;  0x24bc
    24bc:	55 b9       	out	0x05, r21	; 5
    24be:	36 2f       	mov	r19, r22
    24c0:	25 b9       	out	0x05, r18	; 5
    24c2:	00 c0       	rjmp	.+0      	;  0x24c4
    24c4:	45 fd       	sbrc	r20, 5
    24c6:	35 2f       	mov	r19, r21
    24c8:	65 b9       	out	0x05, r22	; 5
    24ca:	00 c0       	rjmp	.+0      	;  0x24cc
    24cc:	55 b9       	out	0x05, r21	; 5
    24ce:	26 2f       	mov	r18, r22
    24d0:	35 b9       	out	0x05, r19	; 5
    24d2:	00 c0       	rjmp	.+0      	;  0x24d4
    24d4:	44 fd       	sbrc	r20, 4
    24d6:	25 2f       	mov	r18, r21
    24d8:	65 b9       	out	0x05, r22	; 5
    24da:	00 c0       	rjmp	.+0      	;  0x24dc
    24dc:	55 b9       	out	0x05, r21	; 5
    24de:	36 2f       	mov	r19, r22
    24e0:	25 b9       	out	0x05, r18	; 5
    24e2:	00 c0       	rjmp	.+0      	;  0x24e4
    24e4:	43 fd       	sbrc	r20, 3
    24e6:	35 2f       	mov	r19, r21
    24e8:	65 b9       	out	0x05, r22	; 5
    24ea:	00 c0       	rjmp	.+0      	;  0x24ec
    24ec:	55 b9       	out	0x05, r21	; 5
    24ee:	26 2f       	mov	r18, r22
    24f0:	35 b9       	out	0x05, r19	; 5
    24f2:	00 c0       	rjmp	.+0      	;  0x24f4
    24f4:	42 fd       	sbrc	r20, 2
    24f6:	25 2f       	mov	r18, r21
    24f8:	65 b9       	out	0x05, r22	; 5
    24fa:	00 c0       	rjmp	.+0      	;  0x24fc
    24fc:	55 b9       	out	0x05, r21	; 5
    24fe:	36 2f       	mov	r19, r22
    2500:	25 b9       	out	0x05, r18	; 5
    2502:	00 c0       	rjmp	.+0      	;  0x2504
    2504:	41 fd       	sbrc	r20, 1
    2506:	35 2f       	mov	r19, r21
    2508:	65 b9       	out	0x05, r22	; 5
    250a:	00 c0       	rjmp	.+0      	;  0x250c
    250c:	55 b9       	out	0x05, r21	; 5
    250e:	26 2f       	mov	r18, r22
    2510:	35 b9       	out	0x05, r19	; 5
    2512:	00 c0       	rjmp	.+0      	;  0x2514
    2514:	40 fd       	sbrc	r20, 0
    2516:	25 2f       	mov	r18, r21
    2518:	65 b9       	out	0x05, r22	; 5
    251a:	01 97       	sbiw	r24, 0x01	; 1
    251c:	55 b9       	out	0x05, r21	; 5
    251e:	36 2f       	mov	r19, r22
    2520:	25 b9       	out	0x05, r18	; 5
    2522:	4d 91       	ld	r20, X+
    2524:	47 fd       	sbrc	r20, 7
    2526:	35 2f       	mov	r19, r21
    2528:	65 b9       	out	0x05, r22	; 5
    252a:	01 f6       	brne	.-128    	;  0x24ac
    252c:	49 87       	std	Y+9, r20	; 0x09
    252e:	3c 83       	std	Y+4, r19	; 0x04
    2530:	2b 83       	std	Y+3, r18	; 0x03
    2532:	2e c0       	rjmp	.+92     	;  0x2590
    2534:	90 81       	ld	r25, Z
    2536:	80 91 f7 03 	lds	r24, 0x03F7	;  0x8003f7
    253a:	98 2b       	or	r25, r24
    253c:	98 87       	std	Y+8, r25	; 0x08
    253e:	90 81       	ld	r25, Z
    2540:	80 95       	com	r24
    2542:	89 23       	and	r24, r25
    2544:	8f 83       	std	Y+7, r24	; 0x07
    2546:	8f 81       	ldd	r24, Y+7	; 0x07
    2548:	8e 83       	std	Y+6, r24	; 0x06
    254a:	88 e0       	ldi	r24, 0x08	; 8
    254c:	8d 83       	std	Y+5, r24	; 0x05
    254e:	58 85       	ldd	r21, Y+8	; 0x08
    2550:	6f 81       	ldd	r22, Y+7	; 0x07
    2552:	49 85       	ldd	r20, Y+9	; 0x09
    2554:	3d 81       	ldd	r19, Y+5	; 0x05
    2556:	2e 81       	ldd	r18, Y+6	; 0x06
    2558:	89 81       	ldd	r24, Y+1	; 0x01
    255a:	9a 81       	ldd	r25, Y+2	; 0x02
    255c:	50 83       	st	Z, r21
    255e:	47 fd       	sbrc	r20, 7
    2560:	25 2f       	mov	r18, r21
    2562:	20 83       	st	Z, r18
    2564:	26 2f       	mov	r18, r22
    2566:	3a 95       	dec	r19
    2568:	31 f0       	breq	.+12     	;  0x2576
    256a:	44 1f       	adc	r20, r20
    256c:	60 83       	st	Z, r22
    256e:	00 c0       	rjmp	.+0      	;  0x2570
    2570:	00 c0       	rjmp	.+0      	;  0x2572
    2572:	00 c0       	rjmp	.+0      	;  0x2574
    2574:	f3 cf       	rjmp	.-26     	;  0x255c
    2576:	60 83       	st	Z, r22
    2578:	00 00       	nop
    257a:	38 e0       	ldi	r19, 0x08	; 8
    257c:	4d 91       	ld	r20, X+
    257e:	01 97       	sbiw	r24, 0x01	; 1
    2580:	69 f7       	brne	.-38     	;  0x255c
    2582:	f0 93 f6 03 	sts	0x03F6, r31	;  0x8003f6
    2586:	e0 93 f5 03 	sts	0x03F5, r30	;  0x8003f5
    258a:	49 87       	std	Y+9, r20	; 0x09
    258c:	3d 83       	std	Y+5, r19	; 0x05
    258e:	2e 83       	std	Y+6, r18	; 0x06
    2590:	9a 83       	std	Y+2, r25	; 0x02
    2592:	89 83       	std	Y+1, r24	; 0x01
    2594:	78 94       	sei
    2596:	0e 94 fd 02 	call	0x5fa	;  0x5fa
    259a:	60 93 f1 03 	sts	0x03F1, r22	;  0x8003f1
    259e:	70 93 f2 03 	sts	0x03F2, r23	;  0x8003f2
    25a2:	80 93 f3 03 	sts	0x03F3, r24	;  0x8003f3
    25a6:	90 93 f4 03 	sts	0x03F4, r25	;  0x8003f4
    25aa:	29 96       	adiw	r28, 0x09	; 9
    25ac:	0f b6       	in	r0, 0x3f	; 63
    25ae:	f8 94       	cli
    25b0:	de bf       	out	0x3e, r29	; 62
    25b2:	0f be       	out	0x3f, r0	; 63
    25b4:	cd bf       	out	0x3d, r28	; 61
    25b6:	df 91       	pop	r29
    25b8:	cf 91       	pop	r28
    25ba:	1f 91       	pop	r17
    25bc:	0f 91       	pop	r16
    25be:	08 95       	ret
    25c0:	20 91 86 03 	lds	r18, 0x0386	;  0x800386
    25c4:	90 91 85 03 	lds	r25, 0x0385	;  0x800385
    25c8:	21 32       	cpi	r18, 0x21	; 33
    25ca:	08 f0       	brcs	.+2      	;  0x25ce
    25cc:	46 c0       	rjmp	.+140    	;  0x265a
    25ce:	80 91 62 03 	lds	r24, 0x0362	;  0x800362
    25d2:	81 11       	cpse	r24, r1
    25d4:	fc cf       	rjmp	.-8      	;  0x25ce
    25d6:	32 e0       	ldi	r19, 0x02	; 2
    25d8:	30 93 62 03 	sts	0x0362, r19	;  0x800362
    25dc:	31 e0       	ldi	r19, 0x01	; 1
    25de:	30 93 61 03 	sts	0x0361, r19	;  0x800361
    25e2:	3f ef       	ldi	r19, 0xFF	; 255
    25e4:	30 93 60 03 	sts	0x0360, r19	;  0x800360
    25e8:	10 92 5f 03 	sts	0x035F, r1	;  0x80035f
    25ec:	20 93 5e 03 	sts	0x035E, r18	;  0x80035e
    25f0:	a5 e6       	ldi	r26, 0x65	; 101
    25f2:	b3 e0       	ldi	r27, 0x03	; 3
    25f4:	4e e3       	ldi	r20, 0x3E	; 62
    25f6:	53 e0       	ldi	r21, 0x03	; 3
    25f8:	fa 01       	movw	r30, r20
    25fa:	3e 2f       	mov	r19, r30
    25fc:	34 1b       	sub	r19, r20
    25fe:	32 17       	cp	r19, r18
    2600:	18 f4       	brcc	.+6      	;  0x2608
    2602:	3d 91       	ld	r19, X+
    2604:	31 93       	st	Z+, r19
    2606:	f9 cf       	rjmp	.-14     	;  0x25fa
    2608:	10 92 3d 03 	sts	0x033D, r1	;  0x80033d
    260c:	20 91 3d 03 	lds	r18, 0x033D	;  0x80033d
    2610:	99 0f       	add	r25, r25
    2612:	92 2b       	or	r25, r18
    2614:	90 93 3d 03 	sts	0x033D, r25	;  0x80033d
    2618:	90 91 3c 03 	lds	r25, 0x033C	;  0x80033c
    261c:	91 30       	cpi	r25, 0x01	; 1
    261e:	41 f4       	brne	.+16     	;  0x2630
    2620:	10 92 3c 03 	sts	0x033C, r1	;  0x80033c
    2624:	90 91 3d 03 	lds	r25, 0x033D	;  0x80033d
    2628:	90 93 bb 00 	sts	0x00BB, r25	;  0x8000bb
    262c:	95 ec       	ldi	r25, 0xC5	; 197
    262e:	01 c0       	rjmp	.+2      	;  0x2632
    2630:	95 ee       	ldi	r25, 0xE5	; 229
    2632:	90 93 bc 00 	sts	0x00BC, r25	;  0x8000bc
    2636:	90 91 62 03 	lds	r25, 0x0362	;  0x800362
    263a:	92 30       	cpi	r25, 0x02	; 2
    263c:	e1 f3       	breq	.-8      	;  0x2636
    263e:	90 91 60 03 	lds	r25, 0x0360	;  0x800360
    2642:	9f 3f       	cpi	r25, 0xFF	; 255
    2644:	79 f0       	breq	.+30     	;  0x2664
    2646:	80 91 60 03 	lds	r24, 0x0360	;  0x800360
    264a:	80 32       	cpi	r24, 0x20	; 32
    264c:	41 f0       	breq	.+16     	;  0x265e
    264e:	80 91 60 03 	lds	r24, 0x0360	;  0x800360
    2652:	80 33       	cpi	r24, 0x30	; 48
    2654:	31 f0       	breq	.+12     	;  0x2662
    2656:	84 e0       	ldi	r24, 0x04	; 4
    2658:	05 c0       	rjmp	.+10     	;  0x2664
    265a:	81 e0       	ldi	r24, 0x01	; 1
    265c:	03 c0       	rjmp	.+6      	;  0x2664
    265e:	82 e0       	ldi	r24, 0x02	; 2
    2660:	01 c0       	rjmp	.+2      	;  0x2664
    2662:	83 e0       	ldi	r24, 0x03	; 3
    2664:	10 92 64 03 	sts	0x0364, r1	;  0x800364
    2668:	10 92 86 03 	sts	0x0386, r1	;  0x800386
    266c:	10 92 63 03 	sts	0x0363, r1	;  0x800363
    2670:	08 95       	ret
    2672:	cf 93       	push	r28
    2674:	df 93       	push	r29
    2676:	c8 2f       	mov	r28, r24
    2678:	d6 2f       	mov	r29, r22
    267a:	80 91 12 04 	lds	r24, 0x0412	;  0x800412
    267e:	8f 3f       	cpi	r24, 0xFF	; 255
    2680:	c9 f4       	brne	.+50     	;  0x26b4
    2682:	80 91 11 04 	lds	r24, 0x0411	;  0x800411
    2686:	91 e0       	ldi	r25, 0x01	; 1
    2688:	90 93 63 03 	sts	0x0363, r25	;  0x800363
    268c:	80 93 85 03 	sts	0x0385, r24	;  0x800385
    2690:	10 92 64 03 	sts	0x0364, r1	;  0x800364
    2694:	10 92 86 03 	sts	0x0386, r1	;  0x800386
    2698:	6c 2f       	mov	r22, r28
    269a:	87 ed       	ldi	r24, 0xD7	; 215
    269c:	93 e0       	ldi	r25, 0x03	; 3
    269e:	0e 94 c0 01 	call	0x380	;  0x380
    26a2:	6d 2f       	mov	r22, r29
    26a4:	87 ed       	ldi	r24, 0xD7	; 215
    26a6:	93 e0       	ldi	r25, 0x03	; 3
    26a8:	0e 94 c0 01 	call	0x380	;  0x380
    26ac:	df 91       	pop	r29
    26ae:	cf 91       	pop	r28
    26b0:	0c 94 e0 12 	jmp	0x25c0	;  0x25c0
    26b4:	80 91 15 04 	lds	r24, 0x0415	;  0x800415
    26b8:	8f 3f       	cpi	r24, 0xFF	; 255
    26ba:	21 f4       	brne	.+8      	;  0x26c4
    26bc:	81 e5       	ldi	r24, 0x51	; 81
    26be:	90 e0       	ldi	r25, 0x00	; 0
    26c0:	0e 94 a8 05 	call	0xb50	;  0xb50
    26c4:	60 e0       	ldi	r22, 0x00	; 0
    26c6:	80 91 12 04 	lds	r24, 0x0412	;  0x800412
    26ca:	0e 94 66 02 	call	0x4cc	;  0x4cc
    26ce:	6c 2f       	mov	r22, r28
    26d0:	6f 77       	andi	r22, 0x7F	; 127
    26d2:	88 ef       	ldi	r24, 0xF8	; 248
    26d4:	93 e0       	ldi	r25, 0x03	; 3
    26d6:	0e 94 60 05 	call	0xac0	;  0xac0
    26da:	6d 2f       	mov	r22, r29
    26dc:	88 ef       	ldi	r24, 0xF8	; 248
    26de:	93 e0       	ldi	r25, 0x03	; 3
    26e0:	0e 94 60 05 	call	0xac0	;  0xac0
    26e4:	61 e0       	ldi	r22, 0x01	; 1
    26e6:	80 91 12 04 	lds	r24, 0x0412	;  0x800412
    26ea:	0e 94 66 02 	call	0x4cc	;  0x4cc
    26ee:	80 91 15 04 	lds	r24, 0x0415	;  0x800415
    26f2:	8f 3f       	cpi	r24, 0xFF	; 255
    26f4:	21 f4       	brne	.+8      	;  0x26fe
    26f6:	df 91       	pop	r29
    26f8:	cf 91       	pop	r28
    26fa:	0c 94 a7 05 	jmp	0xb4e	;  0xb4e
    26fe:	df 91       	pop	r29
    2700:	cf 91       	pop	r28
    2702:	08 95       	ret
    2704:	90 91 62 03 	lds	r25, 0x0362	;  0x800362
    2708:	91 11       	cpse	r25, r1
    270a:	fc cf       	rjmp	.-8      	;  0x2704
    270c:	61 32       	cpi	r22, 0x21	; 33
    270e:	08 f0       	brcs	.+2      	;  0x2712
    2710:	60 e2       	ldi	r22, 0x20	; 32
    2712:	91 e0       	ldi	r25, 0x01	; 1
    2714:	90 93 62 03 	sts	0x0362, r25	;  0x800362
    2718:	90 93 61 03 	sts	0x0361, r25	;  0x800361
    271c:	2f ef       	ldi	r18, 0xFF	; 255
    271e:	20 93 60 03 	sts	0x0360, r18	;  0x800360
    2722:	10 92 5f 03 	sts	0x035F, r1	;  0x80035f
    2726:	26 0f       	add	r18, r22
    2728:	20 93 5e 03 	sts	0x035E, r18	;  0x80035e
    272c:	90 93 3d 03 	sts	0x033D, r25	;  0x80033d
    2730:	90 91 3d 03 	lds	r25, 0x033D	;  0x80033d
    2734:	88 0f       	add	r24, r24
    2736:	89 2b       	or	r24, r25
    2738:	80 93 3d 03 	sts	0x033D, r24	;  0x80033d
    273c:	80 91 3c 03 	lds	r24, 0x033C	;  0x80033c
    2740:	81 30       	cpi	r24, 0x01	; 1
    2742:	41 f4       	brne	.+16     	;  0x2754
    2744:	10 92 3c 03 	sts	0x033C, r1	;  0x80033c
    2748:	80 91 3d 03 	lds	r24, 0x033D	;  0x80033d
    274c:	80 93 bb 00 	sts	0x00BB, r24	;  0x8000bb
    2750:	85 ec       	ldi	r24, 0xC5	; 197
    2752:	01 c0       	rjmp	.+2      	;  0x2756
    2754:	85 ee       	ldi	r24, 0xE5	; 229
    2756:	80 93 bc 00 	sts	0x00BC, r24	;  0x8000bc
    275a:	80 91 62 03 	lds	r24, 0x0362	;  0x800362
    275e:	81 30       	cpi	r24, 0x01	; 1
    2760:	e1 f3       	breq	.-8      	;  0x275a
    2762:	80 91 5f 03 	lds	r24, 0x035F	;  0x80035f
    2766:	86 17       	cp	r24, r22
    2768:	10 f4       	brcc	.+4      	;  0x276e
    276a:	60 91 5f 03 	lds	r22, 0x035F	;  0x80035f
    276e:	ae e3       	ldi	r26, 0x3E	; 62
    2770:	b3 e0       	ldi	r27, 0x03	; 3
    2772:	2c e1       	ldi	r18, 0x1C	; 28
    2774:	33 e0       	ldi	r19, 0x03	; 3
    2776:	f9 01       	movw	r30, r18
    2778:	8e 2f       	mov	r24, r30
    277a:	82 1b       	sub	r24, r18
    277c:	86 17       	cp	r24, r22
    277e:	18 f4       	brcc	.+6      	;  0x2786
    2780:	8d 91       	ld	r24, X+
    2782:	81 93       	st	Z+, r24
    2784:	f9 cf       	rjmp	.-14     	;  0x2778
    2786:	10 92 1b 03 	sts	0x031B, r1	;  0x80031b
    278a:	60 93 1a 03 	sts	0x031A, r22	;  0x80031a
    278e:	86 2f       	mov	r24, r22
    2790:	08 95       	ret
    2792:	cf 93       	push	r28
    2794:	df 93       	push	r29
    2796:	cd b7       	in	r28, 0x3d	; 61
    2798:	de b7       	in	r29, 0x3e	; 62
    279a:	a4 97       	sbiw	r28, 0x24	; 36
    279c:	0f b6       	in	r0, 0x3f	; 63
    279e:	f8 94       	cli
    27a0:	de bf       	out	0x3e, r29	; 62
    27a2:	0f be       	out	0x3f, r0	; 63
    27a4:	cd bf       	out	0x3d, r28	; 61
    27a6:	78 94       	sei
    27a8:	84 b5       	in	r24, 0x24	; 36
    27aa:	82 60       	ori	r24, 0x02	; 2
    27ac:	84 bd       	out	0x24, r24	; 36
    27ae:	84 b5       	in	r24, 0x24	; 36
    27b0:	81 60       	ori	r24, 0x01	; 1
    27b2:	84 bd       	out	0x24, r24	; 36
    27b4:	85 b5       	in	r24, 0x25	; 37
    27b6:	82 60       	ori	r24, 0x02	; 2
    27b8:	85 bd       	out	0x25, r24	; 37
    27ba:	85 b5       	in	r24, 0x25	; 37
    27bc:	81 60       	ori	r24, 0x01	; 1
    27be:	85 bd       	out	0x25, r24	; 37
    27c0:	80 91 6e 00 	lds	r24, 0x006E	;  0x80006e
    27c4:	81 60       	ori	r24, 0x01	; 1
    27c6:	80 93 6e 00 	sts	0x006E, r24	;  0x80006e
    27ca:	10 92 81 00 	sts	0x0081, r1	;  0x800081
    27ce:	80 91 81 00 	lds	r24, 0x0081	;  0x800081
    27d2:	82 60       	ori	r24, 0x02	; 2
    27d4:	80 93 81 00 	sts	0x0081, r24	;  0x800081
    27d8:	80 91 81 00 	lds	r24, 0x0081	;  0x800081
    27dc:	81 60       	ori	r24, 0x01	; 1
    27de:	80 93 81 00 	sts	0x0081, r24	;  0x800081
    27e2:	80 91 80 00 	lds	r24, 0x0080	;  0x800080
    27e6:	81 60       	ori	r24, 0x01	; 1
    27e8:	80 93 80 00 	sts	0x0080, r24	;  0x800080
    27ec:	80 91 91 00 	lds	r24, 0x0091	;  0x800091
    27f0:	82 60       	ori	r24, 0x02	; 2
    27f2:	80 93 91 00 	sts	0x0091, r24	;  0x800091
    27f6:	80 91 91 00 	lds	r24, 0x0091	;  0x800091
    27fa:	81 60       	ori	r24, 0x01	; 1
    27fc:	80 93 91 00 	sts	0x0091, r24	;  0x800091
    2800:	80 91 90 00 	lds	r24, 0x0090	;  0x800090
    2804:	81 60       	ori	r24, 0x01	; 1
    2806:	80 93 90 00 	sts	0x0090, r24	;  0x800090
    280a:	80 91 c1 00 	lds	r24, 0x00C1	;  0x8000c1
    280e:	84 60       	ori	r24, 0x04	; 4
    2810:	80 93 c1 00 	sts	0x00C1, r24	;  0x8000c1
    2814:	80 91 c1 00 	lds	r24, 0x00C1	;  0x8000c1
    2818:	82 60       	ori	r24, 0x02	; 2
    281a:	80 93 c1 00 	sts	0x00C1, r24	;  0x8000c1
    281e:	80 91 c1 00 	lds	r24, 0x00C1	;  0x8000c1
    2822:	81 60       	ori	r24, 0x01	; 1
    2824:	80 93 c1 00 	sts	0x00C1, r24	;  0x8000c1
    2828:	80 91 c3 00 	lds	r24, 0x00C3	;  0x8000c3
    282c:	81 60       	ori	r24, 0x01	; 1
    282e:	80 93 c3 00 	sts	0x00C3, r24	;  0x8000c3
    2832:	80 91 c0 00 	lds	r24, 0x00C0	;  0x8000c0
    2836:	82 60       	ori	r24, 0x02	; 2
    2838:	80 93 c0 00 	sts	0x00C0, r24	;  0x8000c0
    283c:	80 91 c2 00 	lds	r24, 0x00C2	;  0x8000c2
    2840:	81 60       	ori	r24, 0x01	; 1
    2842:	80 93 c2 00 	sts	0x00C2, r24	;  0x8000c2
    2846:	80 91 7a 00 	lds	r24, 0x007A	;  0x80007a
    284a:	84 60       	ori	r24, 0x04	; 4
    284c:	80 93 7a 00 	sts	0x007A, r24	;  0x80007a
    2850:	80 91 7a 00 	lds	r24, 0x007A	;  0x80007a
    2854:	82 60       	ori	r24, 0x02	; 2
    2856:	80 93 7a 00 	sts	0x007A, r24	;  0x80007a
    285a:	80 91 7a 00 	lds	r24, 0x007A	;  0x80007a
    285e:	8e 7f       	andi	r24, 0xFE	; 254
    2860:	80 93 7a 00 	sts	0x007A, r24	;  0x80007a
    2864:	80 91 7a 00 	lds	r24, 0x007A	;  0x80007a
    2868:	80 68       	ori	r24, 0x80	; 128
    286a:	80 93 7a 00 	sts	0x007A, r24	;  0x80007a
    286e:	10 92 02 03 	sts	0x0302, r1	;  0x800302
    2872:	10 92 92 02 	sts	0x0292, r1	;  0x800292
    2876:	10 92 91 02 	sts	0x0291, r1	;  0x800291
    287a:	80 91 d7 00 	lds	r24, 0x00D7	;  0x8000d7
    287e:	81 60       	ori	r24, 0x01	; 1
    2880:	80 93 d7 00 	sts	0x00D7, r24	;  0x8000d7
    2884:	80 ea       	ldi	r24, 0xA0	; 160
    2886:	80 93 d8 00 	sts	0x00D8, r24	;  0x8000d8
    288a:	89 b5       	in	r24, 0x29	; 41
    288c:	8f 7e       	andi	r24, 0xEF	; 239
    288e:	89 bd       	out	0x29, r24	; 41
    2890:	89 b5       	in	r24, 0x29	; 41
    2892:	82 60       	ori	r24, 0x02	; 2
    2894:	89 bd       	out	0x29, r24	; 41
    2896:	09 b4       	in	r0, 0x29	; 41
    2898:	00 fe       	sbrs	r0, 0
    289a:	fd cf       	rjmp	.-6      	;  0x2896
    289c:	61 e0       	ldi	r22, 0x01	; 1
    289e:	70 e0       	ldi	r23, 0x00	; 0
    28a0:	80 e0       	ldi	r24, 0x00	; 0
    28a2:	90 e0       	ldi	r25, 0x00	; 0
    28a4:	0e 94 22 03 	call	0x644	;  0x644
    28a8:	80 91 d8 00 	lds	r24, 0x00D8	;  0x8000d8
    28ac:	8f 7c       	andi	r24, 0xCF	; 207
    28ae:	80 61       	ori	r24, 0x10	; 16
    28b0:	80 93 d8 00 	sts	0x00D8, r24	;  0x8000d8
    28b4:	80 91 e0 00 	lds	r24, 0x00E0	;  0x8000e0
    28b8:	80 7f       	andi	r24, 0xF0	; 240
    28ba:	80 93 e0 00 	sts	0x00E0, r24	;  0x8000e0
    28be:	80 91 e1 00 	lds	r24, 0x00E1	;  0x8000e1
    28c2:	8e 7e       	andi	r24, 0xEE	; 238
    28c4:	80 93 e1 00 	sts	0x00E1, r24	;  0x8000e1
    28c8:	8d e0       	ldi	r24, 0x0D	; 13
    28ca:	80 93 e2 00 	sts	0x00E2, r24	;  0x8000e2
    28ce:	ee ef       	ldi	r30, 0xFE	; 254
    28d0:	ff e7       	ldi	r31, 0x7F	; 127
    28d2:	85 91       	lpm	r24, Z+
    28d4:	94 91       	lpm	r25, Z
    28d6:	8b 3f       	cpi	r24, 0xFB	; 251
    28d8:	9c 4d       	sbci	r25, 0xDC	; 220
    28da:	19 f4       	brne	.+6      	;  0x28e2
    28dc:	81 e0       	ldi	r24, 0x01	; 1
    28de:	80 93 90 02 	sts	0x0290, r24	;  0x800290
    28e2:	8f ef       	ldi	r24, 0xFF	; 255
    28e4:	9f ef       	ldi	r25, 0xFF	; 255
    28e6:	90 93 94 03 	sts	0x0394, r25	;  0x800394
    28ea:	80 93 93 03 	sts	0x0393, r24	;  0x800393
    28ee:	86 e5       	ldi	r24, 0x56	; 86
    28f0:	91 e0       	ldi	r25, 0x01	; 1
    28f2:	0e 94 c8 09 	call	0x1390	;  0x1390
    28f6:	0e 94 a8 07 	call	0xf50	;  0xf50
    28fa:	61 e0       	ldi	r22, 0x01	; 1
    28fc:	8d e0       	ldi	r24, 0x0D	; 13
    28fe:	0e 94 66 02 	call	0x4cc	;  0x4cc
    2902:	64 e6       	ldi	r22, 0x64	; 100
    2904:	70 e0       	ldi	r23, 0x00	; 0
    2906:	80 e0       	ldi	r24, 0x00	; 0
    2908:	90 e0       	ldi	r25, 0x00	; 0
    290a:	0e 94 22 03 	call	0x644	;  0x644
    290e:	60 e0       	ldi	r22, 0x00	; 0
    2910:	8d e0       	ldi	r24, 0x0D	; 13
    2912:	0e 94 66 02 	call	0x4cc	;  0x4cc
    2916:	64 e6       	ldi	r22, 0x64	; 100
    2918:	70 e0       	ldi	r23, 0x00	; 0
    291a:	80 e0       	ldi	r24, 0x00	; 0
    291c:	90 e0       	ldi	r25, 0x00	; 0
    291e:	0e 94 22 03 	call	0x644	;  0x644
    2922:	8f e6       	ldi	r24, 0x6F	; 111
    2924:	91 e0       	ldi	r25, 0x01	; 1
    2926:	0e 94 a3 0a 	call	0x1546	;  0x1546
    292a:	82 e7       	ldi	r24, 0x72	; 114
    292c:	94 e0       	ldi	r25, 0x04	; 4
    292e:	0e 94 b7 0a 	call	0x156e	;  0x156e
    2932:	cb 01       	movw	r24, r22
    2934:	0e 94 a5 0a 	call	0x154a	;  0x154a
    2938:	8d e7       	ldi	r24, 0x7D	; 125
    293a:	91 e0       	ldi	r25, 0x01	; 1
    293c:	0e 94 a3 0a 	call	0x1546	;  0x1546
    2940:	84 e5       	ldi	r24, 0x54	; 84
    2942:	94 e0       	ldi	r25, 0x04	; 4
    2944:	0e 94 b7 0a 	call	0x156e	;  0x156e
    2948:	cb 01       	movw	r24, r22
    294a:	0e 94 a5 0a 	call	0x154a	;  0x154a
    294e:	8b e8       	ldi	r24, 0x8B	; 139
    2950:	91 e0       	ldi	r25, 0x01	; 1
    2952:	0e 94 a3 0a 	call	0x1546	;  0x1546
    2956:	88 e1       	ldi	r24, 0x18	; 24
    2958:	94 e0       	ldi	r25, 0x04	; 4
    295a:	0e 94 b7 0a 	call	0x156e	;  0x156e
    295e:	cb 01       	movw	r24, r22
    2960:	0e 94 a5 0a 	call	0x154a	;  0x154a
    2964:	89 e9       	ldi	r24, 0x99	; 153
    2966:	91 e0       	ldi	r25, 0x01	; 1
    2968:	0e 94 a3 0a 	call	0x1546	;  0x1546
    296c:	86 e3       	ldi	r24, 0x36	; 54
    296e:	94 e0       	ldi	r25, 0x04	; 4
    2970:	0e 94 b7 0a 	call	0x156e	;  0x156e
    2974:	cb 01       	movw	r24, r22
    2976:	0e 94 a5 0a 	call	0x154a	;  0x154a
    297a:	87 ea       	ldi	r24, 0xA7	; 167
    297c:	91 e0       	ldi	r25, 0x01	; 1
    297e:	0e 94 a3 0a 	call	0x1546	;  0x1546
    2982:	8a ee       	ldi	r24, 0xEA	; 234
    2984:	94 e0       	ldi	r25, 0x04	; 4
    2986:	0e 94 b7 0a 	call	0x156e	;  0x156e
    298a:	cb 01       	movw	r24, r22
    298c:	0e 94 a5 0a 	call	0x154a	;  0x154a
    2990:	86 eb       	ldi	r24, 0xB6	; 182
    2992:	91 e0       	ldi	r25, 0x01	; 1
    2994:	0e 94 a3 0a 	call	0x1546	;  0x1546
    2998:	80 e9       	ldi	r24, 0x90	; 144
    299a:	94 e0       	ldi	r25, 0x04	; 4
    299c:	0e 94 b7 0a 	call	0x156e	;  0x156e
    29a0:	cb 01       	movw	r24, r22
    29a2:	0e 94 a5 0a 	call	0x154a	;  0x154a
    29a6:	84 ec       	ldi	r24, 0xC4	; 196
    29a8:	91 e0       	ldi	r25, 0x01	; 1
    29aa:	0e 94 a3 0a 	call	0x1546	;  0x1546
    29ae:	8e ea       	ldi	r24, 0xAE	; 174
    29b0:	94 e0       	ldi	r25, 0x04	; 4
    29b2:	0e 94 b7 0a 	call	0x156e	;  0x156e
    29b6:	cb 01       	movw	r24, r22
    29b8:	0e 94 a5 0a 	call	0x154a	;  0x154a
    29bc:	82 ed       	ldi	r24, 0xD2	; 210
    29be:	91 e0       	ldi	r25, 0x01	; 1
    29c0:	0e 94 a3 0a 	call	0x1546	;  0x1546
    29c4:	8c ec       	ldi	r24, 0xCC	; 204
    29c6:	94 e0       	ldi	r25, 0x04	; 4
    29c8:	0e 94 b7 0a 	call	0x156e	;  0x156e
    29cc:	cb 01       	movw	r24, r22
    29ce:	0e 94 a5 0a 	call	0x154a	;  0x154a
    29d2:	85 e1       	ldi	r24, 0x15	; 21
    29d4:	0e 94 77 11 	call	0x22ee	;  0x22ee
    29d8:	89 2b       	or	r24, r25
    29da:	29 f0       	breq	.+10     	;  0x29e6
    29dc:	81 ee       	ldi	r24, 0xE1	; 225
    29de:	91 e0       	ldi	r25, 0x01	; 1
    29e0:	0e 94 c8 09 	call	0x1390	;  0x1390
    29e4:	2a c2       	rjmp	.+1108   	;  0x2e3a
    29e6:	83 ef       	ldi	r24, 0xF3	; 243
    29e8:	91 e0       	ldi	r25, 0x01	; 1
    29ea:	0e 94 c8 09 	call	0x1390	;  0x1390
    29ee:	80 91 af 02 	lds	r24, 0x02AF	;  0x8002af
    29f2:	90 91 00 01 	lds	r25, 0x0100	;  0x800100
    29f6:	95 30       	cpi	r25, 0x05	; 5
    29f8:	21 f4       	brne	.+8      	;  0x2a02
    29fa:	e4 e2       	ldi	r30, 0x24	; 36
    29fc:	f1 e0       	ldi	r31, 0x01	; 1
    29fe:	14 91       	lpm	r17, Z
    2a00:	a2 c0       	rjmp	.+324    	;  0x2b46
    2a02:	9f 3f       	cpi	r25, 0xFF	; 255
    2a04:	09 f0       	breq	.+2      	;  0x2a08
    2a06:	19 c2       	rjmp	.+1074   	;  0x2e3a
    2a08:	95 e0       	ldi	r25, 0x05	; 5
    2a0a:	90 93 00 01 	sts	0x0100, r25	;  0x800100
    2a0e:	e4 e2       	ldi	r30, 0x24	; 36
    2a10:	f1 e0       	ldi	r31, 0x01	; 1
    2a12:	14 91       	lpm	r17, Z
    2a14:	1f 3f       	cpi	r17, 0xFF	; 255
    2a16:	09 f4       	brne	.+2      	;  0x2a1a
    2a18:	10 c2       	rjmp	.+1056   	;  0x2e3a
    2a1a:	11 30       	cpi	r17, 0x01	; 1
    2a1c:	09 f4       	brne	.+2      	;  0x2a20
    2a1e:	4b c0       	rjmp	.+150    	;  0x2ab6
    2a20:	04 f5       	brge	.+64     	;  0x2a62
    2a22:	11 11       	cpse	r17, r1
    2a24:	90 c0       	rjmp	.+288    	;  0x2b46
    2a26:	14 bc       	out	0x24, r1	; 36
    2a28:	15 bc       	out	0x25, r1	; 37
    2a2a:	94 b5       	in	r25, 0x24	; 36
    2a2c:	92 60       	ori	r25, 0x02	; 2
    2a2e:	94 bd       	out	0x24, r25	; 36
    2a30:	95 b5       	in	r25, 0x25	; 37
    2a32:	91 60       	ori	r25, 0x01	; 1
    2a34:	95 bd       	out	0x25, r25	; 37
    2a36:	e1 e7       	ldi	r30, 0x71	; 113
    2a38:	f1 e0       	ldi	r31, 0x01	; 1
    2a3a:	94 91       	lpm	r25, Z
    2a3c:	e9 2f       	mov	r30, r25
    2a3e:	f0 e0       	ldi	r31, 0x00	; 0
    2a40:	ee 0f       	add	r30, r30
    2a42:	ff 1f       	adc	r31, r31
    2a44:	e2 5a       	subi	r30, 0xA2	; 162
    2a46:	fe 4f       	sbci	r31, 0xFE	; 254
    2a48:	25 91       	lpm	r18, Z+
    2a4a:	34 91       	lpm	r19, Z
    2a4c:	30 93 a2 02 	sts	0x02A2, r19	;  0x8002a2
    2a50:	20 93 a1 02 	sts	0x02A1, r18	;  0x8002a1
    2a54:	e4 e4       	ldi	r30, 0x44	; 68
    2a56:	f1 e0       	ldi	r31, 0x01	; 1
    2a58:	94 91       	lpm	r25, Z
    2a5a:	90 93 a0 02 	sts	0x02A0, r25	;  0x8002a0
    2a5e:	10 e0       	ldi	r17, 0x00	; 0
    2a60:	74 c0       	rjmp	.+232    	;  0x2b4a
    2a62:	13 30       	cpi	r17, 0x03	; 3
    2a64:	09 f4       	brne	.+2      	;  0x2a68
    2a66:	4b c0       	rjmp	.+150    	;  0x2afe
    2a68:	14 30       	cpi	r17, 0x04	; 4
    2a6a:	09 f0       	breq	.+2      	;  0x2a6e
    2a6c:	6c c0       	rjmp	.+216    	;  0x2b46
    2a6e:	10 92 c0 00 	sts	0x00C0, r1	;  0x8000c0
    2a72:	10 92 c1 00 	sts	0x00C1, r1	;  0x8000c1
    2a76:	90 91 c1 00 	lds	r25, 0x00C1	;  0x8000c1
    2a7a:	98 60       	ori	r25, 0x08	; 8
    2a7c:	90 93 c1 00 	sts	0x00C1, r25	;  0x8000c1
    2a80:	90 91 c1 00 	lds	r25, 0x00C1	;  0x8000c1
    2a84:	91 60       	ori	r25, 0x01	; 1
    2a86:	90 93 c1 00 	sts	0x00C1, r25	;  0x8000c1
    2a8a:	e1 e7       	ldi	r30, 0x71	; 113
    2a8c:	f1 e0       	ldi	r31, 0x01	; 1
    2a8e:	94 91       	lpm	r25, Z
    2a90:	e9 2f       	mov	r30, r25
    2a92:	f0 e0       	ldi	r31, 0x00	; 0
    2a94:	ee 0f       	add	r30, r30
    2a96:	ff 1f       	adc	r31, r31
    2a98:	e2 5a       	subi	r30, 0xA2	; 162
    2a9a:	fe 4f       	sbci	r31, 0xFE	; 254
    2a9c:	25 91       	lpm	r18, Z+
    2a9e:	34 91       	lpm	r19, Z
    2aa0:	30 93 9c 02 	sts	0x029C, r19	;  0x80029c
    2aa4:	20 93 9b 02 	sts	0x029B, r18	;  0x80029b
    2aa8:	e4 e4       	ldi	r30, 0x44	; 68
    2aaa:	f1 e0       	ldi	r31, 0x01	; 1
    2aac:	94 91       	lpm	r25, Z
    2aae:	90 93 9a 02 	sts	0x029A, r25	;  0x80029a
    2ab2:	14 e0       	ldi	r17, 0x04	; 4
    2ab4:	4a c0       	rjmp	.+148    	;  0x2b4a
    2ab6:	10 92 80 00 	sts	0x0080, r1	;  0x800080
    2aba:	10 92 81 00 	sts	0x0081, r1	;  0x800081
    2abe:	90 91 81 00 	lds	r25, 0x0081	;  0x800081
    2ac2:	98 60       	ori	r25, 0x08	; 8
    2ac4:	90 93 81 00 	sts	0x0081, r25	;  0x800081
    2ac8:	90 91 81 00 	lds	r25, 0x0081	;  0x800081
    2acc:	91 60       	ori	r25, 0x01	; 1
    2ace:	90 93 81 00 	sts	0x0081, r25	;  0x800081
    2ad2:	e1 e7       	ldi	r30, 0x71	; 113
    2ad4:	f1 e0       	ldi	r31, 0x01	; 1
    2ad6:	94 91       	lpm	r25, Z
    2ad8:	e9 2f       	mov	r30, r25
    2ada:	f0 e0       	ldi	r31, 0x00	; 0
    2adc:	ee 0f       	add	r30, r30
    2ade:	ff 1f       	adc	r31, r31
    2ae0:	e2 5a       	subi	r30, 0xA2	; 162
    2ae2:	fe 4f       	sbci	r31, 0xFE	; 254
    2ae4:	25 91       	lpm	r18, Z+
    2ae6:	34 91       	lpm	r19, Z
    2ae8:	30 93 9f 02 	sts	0x029F, r19	;  0x80029f
    2aec:	20 93 9e 02 	sts	0x029E, r18	;  0x80029e
    2af0:	e4 e4       	ldi	r30, 0x44	; 68
    2af2:	f1 e0       	ldi	r31, 0x01	; 1
    2af4:	94 91       	lpm	r25, Z
    2af6:	90 93 9d 02 	sts	0x029D, r25	;  0x80029d
    2afa:	11 e0       	ldi	r17, 0x01	; 1
    2afc:	26 c0       	rjmp	.+76     	;  0x2b4a
    2afe:	10 92 90 00 	sts	0x0090, r1	;  0x800090
    2b02:	10 92 91 00 	sts	0x0091, r1	;  0x800091
    2b06:	90 91 91 00 	lds	r25, 0x0091	;  0x800091
    2b0a:	98 60       	ori	r25, 0x08	; 8
    2b0c:	90 93 91 00 	sts	0x0091, r25	;  0x800091
    2b10:	90 91 91 00 	lds	r25, 0x0091	;  0x800091
    2b14:	91 60       	ori	r25, 0x01	; 1
    2b16:	90 93 91 00 	sts	0x0091, r25	;  0x800091
    2b1a:	e1 e7       	ldi	r30, 0x71	; 113
    2b1c:	f1 e0       	ldi	r31, 0x01	; 1
    2b1e:	94 91       	lpm	r25, Z
    2b20:	e9 2f       	mov	r30, r25
    2b22:	f0 e0       	ldi	r31, 0x00	; 0
    2b24:	ee 0f       	add	r30, r30
    2b26:	ff 1f       	adc	r31, r31
    2b28:	e2 5a       	subi	r30, 0xA2	; 162
    2b2a:	fe 4f       	sbci	r31, 0xFE	; 254
    2b2c:	25 91       	lpm	r18, Z+
    2b2e:	34 91       	lpm	r19, Z
    2b30:	30 93 95 02 	sts	0x0295, r19	;  0x800295
    2b34:	20 93 94 02 	sts	0x0294, r18	;  0x800294
    2b38:	e4 e4       	ldi	r30, 0x44	; 68
    2b3a:	f1 e0       	ldi	r31, 0x01	; 1
    2b3c:	94 91       	lpm	r25, Z
    2b3e:	90 93 93 02 	sts	0x0293, r25	;  0x800293
    2b42:	13 e0       	ldi	r17, 0x03	; 3
    2b44:	02 c0       	rjmp	.+4      	;  0x2b4a
    2b46:	17 fd       	sbrc	r17, 7
    2b48:	78 c1       	rjmp	.+752    	;  0x2e3a
    2b4a:	90 e0       	ldi	r25, 0x00	; 0
    2b4c:	01 96       	adiw	r24, 0x01	; 1
    2b4e:	24 ef       	ldi	r18, 0xF4	; 244
    2b50:	31 e0       	ldi	r19, 0x01	; 1
    2b52:	82 9f       	mul	r24, r18
    2b54:	10 01       	movw	r2, r0
    2b56:	83 9f       	mul	r24, r19
    2b58:	30 0c       	add	r3, r0
    2b5a:	92 9f       	mul	r25, r18
    2b5c:	30 0c       	add	r3, r0
    2b5e:	11 24       	eor	r1, r1
    2b60:	61 e0       	ldi	r22, 0x01	; 1
    2b62:	85 e0       	ldi	r24, 0x05	; 5
    2b64:	0e 94 96 02 	call	0x52c	;  0x52c
    2b68:	21 01       	movw	r4, r2
    2b6a:	03 2c       	mov	r0, r3
    2b6c:	00 0c       	add	r0, r0
    2b6e:	66 08       	sbc	r6, r6
    2b70:	77 08       	sbc	r7, r7
    2b72:	81 2f       	mov	r24, r17
    2b74:	8d 7f       	andi	r24, 0xFD	; 253
    2b76:	09 f0       	breq	.+2      	;  0x2b7a
    2b78:	c7 c0       	rjmp	.+398    	;  0x2d08
    2b7a:	60 e0       	ldi	r22, 0x00	; 0
    2b7c:	79 e0       	ldi	r23, 0x09	; 9
    2b7e:	8d e3       	ldi	r24, 0x3D	; 61
    2b80:	90 e0       	ldi	r25, 0x00	; 0
    2b82:	a3 01       	movw	r20, r6
    2b84:	92 01       	movw	r18, r4
    2b86:	0e 94 7d 19 	call	0x32fa	;  0x32fa
    2b8a:	49 01       	movw	r8, r18
    2b8c:	5a 01       	movw	r10, r20
    2b8e:	69 01       	movw	r12, r18
    2b90:	7a 01       	movw	r14, r20
    2b92:	31 e0       	ldi	r19, 0x01	; 1
    2b94:	c3 1a       	sub	r12, r19
    2b96:	d1 08       	sbc	r13, r1
    2b98:	e1 08       	sbc	r14, r1
    2b9a:	f1 08       	sbc	r15, r1
    2b9c:	6f ef       	ldi	r22, 0xFF	; 255
    2b9e:	c6 16       	cp	r12, r22
    2ba0:	d1 04       	cpc	r13, r1
    2ba2:	e1 04       	cpc	r14, r1
    2ba4:	f1 04       	cpc	r15, r1
    2ba6:	09 f0       	breq	.+2      	;  0x2baa
    2ba8:	08 f4       	brcc	.+2      	;  0x2bac
    2baa:	4a c0       	rjmp	.+148    	;  0x2c40
    2bac:	60 e2       	ldi	r22, 0x20	; 32
    2bae:	71 ea       	ldi	r23, 0xA1	; 161
    2bb0:	87 e0       	ldi	r24, 0x07	; 7
    2bb2:	90 e0       	ldi	r25, 0x00	; 0
    2bb4:	a3 01       	movw	r20, r6
    2bb6:	92 01       	movw	r18, r4
    2bb8:	0e 94 7d 19 	call	0x32fa	;  0x32fa
    2bbc:	69 01       	movw	r12, r18
    2bbe:	7a 01       	movw	r14, r20
    2bc0:	81 e0       	ldi	r24, 0x01	; 1
    2bc2:	c8 1a       	sub	r12, r24
    2bc4:	d1 08       	sbc	r13, r1
    2bc6:	e1 08       	sbc	r14, r1
    2bc8:	f1 08       	sbc	r15, r1
    2bca:	12 30       	cpi	r17, 0x02	; 2
    2bcc:	f9 f4       	brne	.+62     	;  0x2c0c
    2bce:	9f ef       	ldi	r25, 0xFF	; 255
    2bd0:	c9 16       	cp	r12, r25
    2bd2:	d1 04       	cpc	r13, r1
    2bd4:	e1 04       	cpc	r14, r1
    2bd6:	f1 04       	cpc	r15, r1
    2bd8:	09 f0       	breq	.+2      	;  0x2bdc
    2bda:	08 f4       	brcc	.+2      	;  0x2bde
    2bdc:	d6 c0       	rjmp	.+428    	;  0x2d8a
    2bde:	68 e4       	ldi	r22, 0x48	; 72
    2be0:	78 ee       	ldi	r23, 0xE8	; 232
    2be2:	81 e0       	ldi	r24, 0x01	; 1
    2be4:	90 e0       	ldi	r25, 0x00	; 0
    2be6:	a3 01       	movw	r20, r6
    2be8:	92 01       	movw	r18, r4
    2bea:	0e 94 7d 19 	call	0x32fa	;  0x32fa
    2bee:	69 01       	movw	r12, r18
    2bf0:	7a 01       	movw	r14, r20
    2bf2:	e1 e0       	ldi	r30, 0x01	; 1
    2bf4:	ce 1a       	sub	r12, r30
    2bf6:	d1 08       	sbc	r13, r1
    2bf8:	e1 08       	sbc	r14, r1
    2bfa:	f1 08       	sbc	r15, r1
    2bfc:	ff ef       	ldi	r31, 0xFF	; 255
    2bfe:	cf 16       	cp	r12, r31
    2c00:	d1 04       	cpc	r13, r1
    2c02:	e1 04       	cpc	r14, r1
    2c04:	f1 04       	cpc	r15, r1
    2c06:	09 f0       	breq	.+2      	;  0x2c0a
    2c08:	10 f5       	brcc	.+68     	;  0x2c4e
    2c0a:	bf c0       	rjmp	.+382    	;  0x2d8a
    2c0c:	0f ef       	ldi	r16, 0xFF	; 255
    2c0e:	c0 16       	cp	r12, r16
    2c10:	d1 04       	cpc	r13, r1
    2c12:	e1 04       	cpc	r14, r1
    2c14:	f1 04       	cpc	r15, r1
    2c16:	b1 f0       	breq	.+44     	;  0x2c44
    2c18:	a8 f0       	brcs	.+42     	;  0x2c44
    2c1a:	64 e2       	ldi	r22, 0x24	; 36
    2c1c:	74 ef       	ldi	r23, 0xF4	; 244
    2c1e:	80 e0       	ldi	r24, 0x00	; 0
    2c20:	90 e0       	ldi	r25, 0x00	; 0
    2c22:	a3 01       	movw	r20, r6
    2c24:	92 01       	movw	r18, r4
    2c26:	0e 94 7d 19 	call	0x32fa	;  0x32fa
    2c2a:	69 01       	movw	r12, r18
    2c2c:	7a 01       	movw	r14, r20
    2c2e:	61 e0       	ldi	r22, 0x01	; 1
    2c30:	c6 1a       	sub	r12, r22
    2c32:	d1 08       	sbc	r13, r1
    2c34:	e1 08       	sbc	r14, r1
    2c36:	f1 08       	sbc	r15, r1
    2c38:	11 23       	and	r17, r17
    2c3a:	09 f4       	brne	.+2      	;  0x2c3e
    2c3c:	50 c2       	rjmp	.+1184   	;  0x30de
    2c3e:	45 c2       	rjmp	.+1162   	;  0x30ca
    2c40:	81 e0       	ldi	r24, 0x01	; 1
    2c42:	01 c0       	rjmp	.+2      	;  0x2c46
    2c44:	82 e0       	ldi	r24, 0x02	; 2
    2c46:	11 23       	and	r17, r17
    2c48:	09 f4       	brne	.+2      	;  0x2c4c
    2c4a:	59 c0       	rjmp	.+178    	;  0x2cfe
    2c4c:	9e c0       	rjmp	.+316    	;  0x2d8a
    2c4e:	64 e2       	ldi	r22, 0x24	; 36
    2c50:	74 ef       	ldi	r23, 0xF4	; 244
    2c52:	80 e0       	ldi	r24, 0x00	; 0
    2c54:	90 e0       	ldi	r25, 0x00	; 0
    2c56:	a3 01       	movw	r20, r6
    2c58:	92 01       	movw	r18, r4
    2c5a:	0e 94 7d 19 	call	0x32fa	;  0x32fa
    2c5e:	69 01       	movw	r12, r18
    2c60:	7a 01       	movw	r14, r20
    2c62:	91 e0       	ldi	r25, 0x01	; 1
    2c64:	c9 1a       	sub	r12, r25
    2c66:	d1 08       	sbc	r13, r1
    2c68:	e1 08       	sbc	r14, r1
    2c6a:	f1 08       	sbc	r15, r1
    2c6c:	ef ef       	ldi	r30, 0xFF	; 255
    2c6e:	ce 16       	cp	r12, r30
    2c70:	d1 04       	cpc	r13, r1
    2c72:	e1 04       	cpc	r14, r1
    2c74:	f1 04       	cpc	r15, r1
    2c76:	09 f0       	breq	.+2      	;  0x2c7a
    2c78:	08 f4       	brcc	.+2      	;  0x2c7c
    2c7a:	87 c0       	rjmp	.+270    	;  0x2d8a
    2c7c:	62 e1       	ldi	r22, 0x12	; 18
    2c7e:	7a e7       	ldi	r23, 0x7A	; 122
    2c80:	80 e0       	ldi	r24, 0x00	; 0
    2c82:	90 e0       	ldi	r25, 0x00	; 0
    2c84:	a3 01       	movw	r20, r6
    2c86:	92 01       	movw	r18, r4
    2c88:	0e 94 7d 19 	call	0x32fa	;  0x32fa
    2c8c:	69 01       	movw	r12, r18
    2c8e:	7a 01       	movw	r14, r20
    2c90:	81 e0       	ldi	r24, 0x01	; 1
    2c92:	c8 1a       	sub	r12, r24
    2c94:	d1 08       	sbc	r13, r1
    2c96:	e1 08       	sbc	r14, r1
    2c98:	f1 08       	sbc	r15, r1
    2c9a:	9f ef       	ldi	r25, 0xFF	; 255
    2c9c:	c9 16       	cp	r12, r25
    2c9e:	d1 04       	cpc	r13, r1
    2ca0:	e1 04       	cpc	r14, r1
    2ca2:	f1 04       	cpc	r15, r1
    2ca4:	09 f0       	breq	.+2      	;  0x2ca8
    2ca6:	08 f4       	brcc	.+2      	;  0x2caa
    2ca8:	70 c0       	rjmp	.+224    	;  0x2d8a
    2caa:	69 e0       	ldi	r22, 0x09	; 9
    2cac:	7d e3       	ldi	r23, 0x3D	; 61
    2cae:	80 e0       	ldi	r24, 0x00	; 0
    2cb0:	90 e0       	ldi	r25, 0x00	; 0
    2cb2:	a3 01       	movw	r20, r6
    2cb4:	92 01       	movw	r18, r4
    2cb6:	0e 94 7d 19 	call	0x32fa	;  0x32fa
    2cba:	69 01       	movw	r12, r18
    2cbc:	7a 01       	movw	r14, r20
    2cbe:	f1 e0       	ldi	r31, 0x01	; 1
    2cc0:	cf 1a       	sub	r12, r31
    2cc2:	d1 08       	sbc	r13, r1
    2cc4:	e1 08       	sbc	r14, r1
    2cc6:	f1 08       	sbc	r15, r1
    2cc8:	0f ef       	ldi	r16, 0xFF	; 255
    2cca:	c0 16       	cp	r12, r16
    2ccc:	d1 04       	cpc	r13, r1
    2cce:	e1 04       	cpc	r14, r1
    2cd0:	f1 04       	cpc	r15, r1
    2cd2:	09 f0       	breq	.+2      	;  0x2cd6
    2cd4:	08 f4       	brcc	.+2      	;  0x2cd8
    2cd6:	f7 c1       	rjmp	.+1006   	;  0x30c6
    2cd8:	d5 01       	movw	r26, r10
    2cda:	c4 01       	movw	r24, r8
    2cdc:	5a e0       	ldi	r21, 0x0A	; 10
    2cde:	b5 95       	asr	r27
    2ce0:	a7 95       	ror	r26
    2ce2:	97 95       	ror	r25
    2ce4:	87 95       	ror	r24
    2ce6:	5a 95       	dec	r21
    2ce8:	d1 f7       	brne	.-12     	;  0x2cde
    2cea:	6c 01       	movw	r12, r24
    2cec:	7d 01       	movw	r14, r26
    2cee:	e1 e0       	ldi	r30, 0x01	; 1
    2cf0:	ce 1a       	sub	r12, r30
    2cf2:	d1 08       	sbc	r13, r1
    2cf4:	e1 08       	sbc	r14, r1
    2cf6:	f1 08       	sbc	r15, r1
    2cf8:	11 11       	cpse	r17, r1
    2cfa:	47 c0       	rjmp	.+142    	;  0x2d8a
    2cfc:	85 e0       	ldi	r24, 0x05	; 5
    2cfe:	95 b5       	in	r25, 0x25	; 37
    2d00:	98 7f       	andi	r25, 0xF8	; 248
    2d02:	89 2b       	or	r24, r25
    2d04:	85 bd       	out	0x25, r24	; 37
    2d06:	41 c0       	rjmp	.+130    	;  0x2d8a
    2d08:	60 e0       	ldi	r22, 0x00	; 0
    2d0a:	79 e0       	ldi	r23, 0x09	; 9
    2d0c:	8d e3       	ldi	r24, 0x3D	; 61
    2d0e:	90 e0       	ldi	r25, 0x00	; 0
    2d10:	a3 01       	movw	r20, r6
    2d12:	92 01       	movw	r18, r4
    2d14:	0e 94 7d 19 	call	0x32fa	;  0x32fa
    2d18:	69 01       	movw	r12, r18
    2d1a:	7a 01       	movw	r14, r20
    2d1c:	f1 e0       	ldi	r31, 0x01	; 1
    2d1e:	cf 1a       	sub	r12, r31
    2d20:	d1 08       	sbc	r13, r1
    2d22:	e1 08       	sbc	r14, r1
    2d24:	f1 08       	sbc	r15, r1
    2d26:	c1 14       	cp	r12, r1
    2d28:	d1 04       	cpc	r13, r1
    2d2a:	01 e0       	ldi	r16, 0x01	; 1
    2d2c:	e0 06       	cpc	r14, r16
    2d2e:	f1 04       	cpc	r15, r1
    2d30:	88 f0       	brcs	.+34     	;  0x2d54
    2d32:	64 e2       	ldi	r22, 0x24	; 36
    2d34:	74 ef       	ldi	r23, 0xF4	; 244
    2d36:	80 e0       	ldi	r24, 0x00	; 0
    2d38:	90 e0       	ldi	r25, 0x00	; 0
    2d3a:	a3 01       	movw	r20, r6
    2d3c:	92 01       	movw	r18, r4
    2d3e:	0e 94 7d 19 	call	0x32fa	;  0x32fa
    2d42:	69 01       	movw	r12, r18
    2d44:	7a 01       	movw	r14, r20
    2d46:	61 e0       	ldi	r22, 0x01	; 1
    2d48:	c6 1a       	sub	r12, r22
    2d4a:	d1 08       	sbc	r13, r1
    2d4c:	e1 08       	sbc	r14, r1
    2d4e:	f1 08       	sbc	r15, r1
    2d50:	83 e0       	ldi	r24, 0x03	; 3
    2d52:	01 c0       	rjmp	.+2      	;  0x2d56
    2d54:	81 e0       	ldi	r24, 0x01	; 1
    2d56:	11 30       	cpi	r17, 0x01	; 1
    2d58:	39 f4       	brne	.+14     	;  0x2d68
    2d5a:	90 91 81 00 	lds	r25, 0x0081	;  0x800081
    2d5e:	98 7f       	andi	r25, 0xF8	; 248
    2d60:	89 2b       	or	r24, r25
    2d62:	80 93 81 00 	sts	0x0081, r24	;  0x800081
    2d66:	11 c0       	rjmp	.+34     	;  0x2d8a
    2d68:	13 30       	cpi	r17, 0x03	; 3
    2d6a:	39 f4       	brne	.+14     	;  0x2d7a
    2d6c:	90 91 91 00 	lds	r25, 0x0091	;  0x800091
    2d70:	98 7f       	andi	r25, 0xF8	; 248
    2d72:	89 2b       	or	r24, r25
    2d74:	80 93 91 00 	sts	0x0091, r24	;  0x800091
    2d78:	08 c0       	rjmp	.+16     	;  0x2d8a
    2d7a:	14 30       	cpi	r17, 0x04	; 4
    2d7c:	31 f4       	brne	.+12     	;  0x2d8a
    2d7e:	90 91 c1 00 	lds	r25, 0x00C1	;  0x8000c1
    2d82:	98 7f       	andi	r25, 0xF8	; 248
    2d84:	89 2b       	or	r24, r25
    2d86:	80 93 c1 00 	sts	0x00C1, r24	;  0x8000c1
    2d8a:	91 01       	movw	r18, r2
    2d8c:	22 0f       	add	r18, r18
    2d8e:	33 1f       	adc	r19, r19
    2d90:	aa ef       	ldi	r26, 0xFA	; 250
    2d92:	b0 e0       	ldi	r27, 0x00	; 0
    2d94:	0e 94 a2 19 	call	0x3344	;  0x3344
    2d98:	28 ee       	ldi	r18, 0xE8	; 232
    2d9a:	33 e0       	ldi	r19, 0x03	; 3
    2d9c:	40 e0       	ldi	r20, 0x00	; 0
    2d9e:	50 e0       	ldi	r21, 0x00	; 0
    2da0:	0e 94 5b 19 	call	0x32b6	;  0x32b6
    2da4:	11 30       	cpi	r17, 0x01	; 1
    2da6:	31 f1       	breq	.+76     	;  0x2df4
    2da8:	8c f4       	brge	.+34     	;  0x2dcc
    2daa:	11 11       	cpse	r17, r1
    2dac:	46 c0       	rjmp	.+140    	;  0x2e3a
    2dae:	c7 bc       	out	0x27, r12	; 39
    2db0:	20 93 ab 02 	sts	0x02AB, r18	;  0x8002ab
    2db4:	30 93 ac 02 	sts	0x02AC, r19	;  0x8002ac
    2db8:	40 93 ad 02 	sts	0x02AD, r20	;  0x8002ad
    2dbc:	50 93 ae 02 	sts	0x02AE, r21	;  0x8002ae
    2dc0:	80 91 6e 00 	lds	r24, 0x006E	;  0x80006e
    2dc4:	82 60       	ori	r24, 0x02	; 2
    2dc6:	80 93 6e 00 	sts	0x006E, r24	;  0x80006e
    2dca:	37 c0       	rjmp	.+110    	;  0x2e3a
    2dcc:	13 30       	cpi	r17, 0x03	; 3
    2dce:	21 f1       	breq	.+72     	;  0x2e18
    2dd0:	14 30       	cpi	r17, 0x04	; 4
    2dd2:	99 f5       	brne	.+102    	;  0x2e3a
    2dd4:	c0 92 cf 00 	sts	0x00CF, r12	;  0x8000cf
    2dd8:	20 93 a3 02 	sts	0x02A3, r18	;  0x8002a3
    2ddc:	30 93 a4 02 	sts	0x02A4, r19	;  0x8002a4
    2de0:	40 93 a5 02 	sts	0x02A5, r20	;  0x8002a5
    2de4:	50 93 a6 02 	sts	0x02A6, r21	;  0x8002a6
    2de8:	80 91 72 00 	lds	r24, 0x0072	;  0x800072
    2dec:	80 64       	ori	r24, 0x40	; 64
    2dee:	80 93 72 00 	sts	0x0072, r24	;  0x800072
    2df2:	23 c0       	rjmp	.+70     	;  0x2e3a
    2df4:	d0 92 89 00 	sts	0x0089, r13	;  0x800089
    2df8:	c0 92 88 00 	sts	0x0088, r12	;  0x800088
    2dfc:	20 93 a7 02 	sts	0x02A7, r18	;  0x8002a7
    2e00:	30 93 a8 02 	sts	0x02A8, r19	;  0x8002a8
    2e04:	40 93 a9 02 	sts	0x02A9, r20	;  0x8002a9
    2e08:	50 93 aa 02 	sts	0x02AA, r21	;  0x8002aa
    2e0c:	80 91 6f 00 	lds	r24, 0x006F	;  0x80006f
    2e10:	82 60       	ori	r24, 0x02	; 2
    2e12:	80 93 6f 00 	sts	0x006F, r24	;  0x80006f
    2e16:	11 c0       	rjmp	.+34     	;  0x2e3a
    2e18:	d0 92 99 00 	sts	0x0099, r13	;  0x800099
    2e1c:	c0 92 98 00 	sts	0x0098, r12	;  0x800098
    2e20:	20 93 96 02 	sts	0x0296, r18	;  0x800296
    2e24:	30 93 97 02 	sts	0x0297, r19	;  0x800297
    2e28:	40 93 98 02 	sts	0x0298, r20	;  0x800298
    2e2c:	50 93 99 02 	sts	0x0299, r21	;  0x800299
    2e30:	80 91 71 00 	lds	r24, 0x0071	;  0x800071
    2e34:	82 60       	ori	r24, 0x02	; 2
    2e36:	80 93 71 00 	sts	0x0071, r24	;  0x800071
    2e3a:	e0 91 af 02 	lds	r30, 0x02AF	;  0x8002af
    2e3e:	89 e1       	ldi	r24, 0x19	; 25
    2e40:	e8 9f       	mul	r30, r24
    2e42:	80 2d       	mov	r24, r0
    2e44:	11 24       	eor	r1, r1
    2e46:	80 95       	com	r24
    2e48:	85 35       	cpi	r24, 0x55	; 85
    2e4a:	50 f4       	brcc	.+20     	;  0x2e60
    2e4c:	98 2f       	mov	r25, r24
    2e4e:	99 0f       	add	r25, r25
    2e50:	89 0f       	add	r24, r25
    2e52:	28 2f       	mov	r18, r24
    2e54:	20 95       	com	r18
    2e56:	90 e0       	ldi	r25, 0x00	; 0
    2e58:	a0 e0       	ldi	r26, 0x00	; 0
    2e5a:	b0 e0       	ldi	r27, 0x00	; 0
    2e5c:	a2 2b       	or	r26, r18
    2e5e:	1f c0       	rjmp	.+62     	;  0x2e9e
    2e60:	8a 3a       	cpi	r24, 0xAA	; 170
    2e62:	80 f4       	brcc	.+32     	;  0x2e84
    2e64:	85 55       	subi	r24, 0x55	; 85
    2e66:	98 2f       	mov	r25, r24
    2e68:	99 0f       	add	r25, r25
    2e6a:	98 0f       	add	r25, r24
    2e6c:	89 2f       	mov	r24, r25
    2e6e:	80 95       	com	r24
    2e70:	48 2f       	mov	r20, r24
    2e72:	50 e0       	ldi	r21, 0x00	; 0
    2e74:	60 e0       	ldi	r22, 0x00	; 0
    2e76:	70 e0       	ldi	r23, 0x00	; 0
    2e78:	8a 01       	movw	r16, r20
    2e7a:	9b 01       	movw	r18, r22
    2e7c:	19 2b       	or	r17, r25
    2e7e:	d9 01       	movw	r26, r18
    2e80:	c8 01       	movw	r24, r16
    2e82:	0d c0       	rjmp	.+26     	;  0x2e9e
    2e84:	8a 5a       	subi	r24, 0xAA	; 170
    2e86:	98 2f       	mov	r25, r24
    2e88:	99 0f       	add	r25, r25
    2e8a:	89 0f       	add	r24, r25
    2e8c:	28 2f       	mov	r18, r24
    2e8e:	20 95       	com	r18
    2e90:	90 e0       	ldi	r25, 0x00	; 0
    2e92:	a0 e0       	ldi	r26, 0x00	; 0
    2e94:	b0 e0       	ldi	r27, 0x00	; 0
    2e96:	dc 01       	movw	r26, r24
    2e98:	99 27       	eor	r25, r25
    2e9a:	88 27       	eor	r24, r24
    2e9c:	92 2b       	or	r25, r18
    2e9e:	11 e0       	ldi	r17, 0x01	; 1
    2ea0:	1e 0f       	add	r17, r30
    2ea2:	10 93 af 02 	sts	0x02AF, r17	;  0x8002af
    2ea6:	2e 2f       	mov	r18, r30
    2ea8:	30 e0       	ldi	r19, 0x00	; 0
    2eaa:	40 91 e5 03 	lds	r20, 0x03E5	;  0x8003e5
    2eae:	50 91 e6 03 	lds	r21, 0x03E6	;  0x8003e6
    2eb2:	24 17       	cp	r18, r20
    2eb4:	35 07       	cpc	r19, r21
    2eb6:	08 f0       	brcs	.+2      	;  0x2eba
    2eb8:	4c c0       	rjmp	.+152    	;  0x2f52
    2eba:	6d 01       	movw	r12, r26
    2ebc:	ee 24       	eor	r14, r14
    2ebe:	ff 24       	eor	r15, r15
    2ec0:	49 2e       	mov	r4, r25
    2ec2:	5a 2e       	mov	r5, r26
    2ec4:	6b 2e       	mov	r6, r27
    2ec6:	77 24       	eor	r7, r7
    2ec8:	54 2d       	mov	r21, r4
    2eca:	48 2f       	mov	r20, r24
    2ecc:	f0 91 ea 03 	lds	r31, 0x03EA	;  0x8003ea
    2ed0:	ff 23       	and	r31, r31
    2ed2:	91 f0       	breq	.+36     	;  0x2ef8
    2ed4:	6f 2f       	mov	r22, r31
    2ed6:	70 e0       	ldi	r23, 0x00	; 0
    2ed8:	6c 9d       	mul	r22, r12
    2eda:	a0 01       	movw	r20, r0
    2edc:	6d 9d       	mul	r22, r13
    2ede:	50 0d       	add	r21, r0
    2ee0:	7c 9d       	mul	r23, r12
    2ee2:	50 0d       	add	r21, r0
    2ee4:	11 24       	eor	r1, r1
    2ee6:	c5 2e       	mov	r12, r21
    2ee8:	4f 9e       	mul	r4, r31
    2eea:	20 01       	movw	r4, r0
    2eec:	11 24       	eor	r1, r1
    2eee:	55 2d       	mov	r21, r5
    2ef0:	8f 9f       	mul	r24, r31
    2ef2:	c0 01       	movw	r24, r0
    2ef4:	11 24       	eor	r1, r1
    2ef6:	49 2f       	mov	r20, r25
    2ef8:	60 91 f0 03 	lds	r22, 0x03F0	;  0x8003f0
    2efc:	70 91 ed 03 	lds	r23, 0x03ED	;  0x8003ed
    2f00:	80 91 eb 03 	lds	r24, 0x03EB	;  0x8003eb
    2f04:	90 91 ec 03 	lds	r25, 0x03EC	;  0x8003ec
    2f08:	67 13       	cpse	r22, r23
    2f0a:	07 c0       	rjmp	.+14     	;  0x2f1a
    2f0c:	9c 01       	movw	r18, r24
    2f0e:	63 e0       	ldi	r22, 0x03	; 3
    2f10:	e6 9f       	mul	r30, r22
    2f12:	20 0d       	add	r18, r0
    2f14:	31 1d       	adc	r19, r1
    2f16:	11 24       	eor	r1, r1
    2f18:	0a c0       	rjmp	.+20     	;  0x2f2e
    2f1a:	22 0f       	add	r18, r18
    2f1c:	33 1f       	adc	r19, r19
    2f1e:	22 0f       	add	r18, r18
    2f20:	33 1f       	adc	r19, r19
    2f22:	28 0f       	add	r18, r24
    2f24:	39 1f       	adc	r19, r25
    2f26:	f9 01       	movw	r30, r18
    2f28:	e6 0f       	add	r30, r22
    2f2a:	f1 1d       	adc	r31, r1
    2f2c:	10 82       	st	Z, r1
    2f2e:	80 91 ed 03 	lds	r24, 0x03ED	;  0x8003ed
    2f32:	f9 01       	movw	r30, r18
    2f34:	e8 0f       	add	r30, r24
    2f36:	f1 1d       	adc	r31, r1
    2f38:	c0 82       	st	Z, r12
    2f3a:	80 91 ee 03 	lds	r24, 0x03EE	;  0x8003ee
    2f3e:	f9 01       	movw	r30, r18
    2f40:	e8 0f       	add	r30, r24
    2f42:	f1 1d       	adc	r31, r1
    2f44:	50 83       	st	Z, r21
    2f46:	80 91 ef 03 	lds	r24, 0x03EF	;  0x8003ef
    2f4a:	f9 01       	movw	r30, r18
    2f4c:	e8 0f       	add	r30, r24
    2f4e:	f1 1d       	adc	r31, r1
    2f50:	40 83       	st	Z, r20
    2f52:	0e 94 a0 11 	call	0x2340	;  0x2340
    2f56:	1b 30       	cpi	r17, 0x0B	; 11
    2f58:	81 f4       	brne	.+32     	;  0x2f7a
    2f5a:	10 92 af 02 	sts	0x02AF, r1	;  0x8002af
    2f5e:	40 91 e7 03 	lds	r20, 0x03E7	;  0x8003e7
    2f62:	50 91 e8 03 	lds	r21, 0x03E8	;  0x8003e8
    2f66:	60 e0       	ldi	r22, 0x00	; 0
    2f68:	70 e0       	ldi	r23, 0x00	; 0
    2f6a:	80 91 eb 03 	lds	r24, 0x03EB	;  0x8003eb
    2f6e:	90 91 ec 03 	lds	r25, 0x03EC	;  0x8003ec
    2f72:	0e 94 ab 1d 	call	0x3b56	;  0x3b56
    2f76:	0e 94 a0 11 	call	0x2340	;  0x2340
    2f7a:	84 e0       	ldi	r24, 0x04	; 4
    2f7c:	0e 94 77 11 	call	0x22ee	;  0x22ee
    2f80:	89 2b       	or	r24, r25
    2f82:	21 f0       	breq	.+8      	;  0x2f8c
    2f84:	86 e0       	ldi	r24, 0x06	; 6
    2f86:	92 e0       	ldi	r25, 0x02	; 2
    2f88:	0e 94 c8 09 	call	0x1390	;  0x1390
    2f8c:	83 e1       	ldi	r24, 0x13	; 19
    2f8e:	0e 94 77 11 	call	0x22ee	;  0x22ee
    2f92:	89 2b       	or	r24, r25
    2f94:	21 f0       	breq	.+8      	;  0x2f9e
    2f96:	8b e1       	ldi	r24, 0x1B	; 27
    2f98:	92 e0       	ldi	r25, 0x02	; 2
    2f9a:	0e 94 c8 09 	call	0x1390	;  0x1390
    2f9e:	81 e3       	ldi	r24, 0x31	; 49
    2fa0:	92 e0       	ldi	r25, 0x02	; 2
    2fa2:	0e 94 a3 0a 	call	0x1546	;  0x1546
    2fa6:	87 e1       	ldi	r24, 0x17	; 23
    2fa8:	0e 94 d2 02 	call	0x5a4	;  0x5a4
    2fac:	0e 94 a5 0a 	call	0x154a	;  0x154a
    2fb0:	80 e4       	ldi	r24, 0x40	; 64
    2fb2:	92 e0       	ldi	r25, 0x02	; 2
    2fb4:	0e 94 a3 0a 	call	0x1546	;  0x1546
    2fb8:	86 e1       	ldi	r24, 0x16	; 22
    2fba:	0e 94 d2 02 	call	0x5a4	;  0x5a4
    2fbe:	0e 94 a5 0a 	call	0x154a	;  0x154a
    2fc2:	8f e4       	ldi	r24, 0x4F	; 79
    2fc4:	92 e0       	ldi	r25, 0x02	; 2
    2fc6:	0e 94 a3 0a 	call	0x1546	;  0x1546
    2fca:	be 01       	movw	r22, r28
    2fcc:	6f 5f       	subi	r22, 0xFF	; 255
    2fce:	7f 4f       	sbci	r23, 0xFF	; 255
    2fd0:	88 ef       	ldi	r24, 0xF8	; 248
    2fd2:	93 e0       	ldi	r25, 0x03	; 3
    2fd4:	0e 94 ef 05 	call	0xbde	;  0xbde
    2fd8:	6d 89       	ldd	r22, Y+21	; 0x15
    2fda:	7e 89       	ldd	r23, Y+22	; 0x16
    2fdc:	8f 89       	ldd	r24, Y+23	; 0x17
    2fde:	98 8d       	ldd	r25, Y+24	; 0x18
    2fe0:	0e 94 d6 09 	call	0x13ac	;  0x13ac
    2fe4:	83 e5       	ldi	r24, 0x53	; 83
    2fe6:	92 e0       	ldi	r25, 0x02	; 2
    2fe8:	0e 94 a3 0a 	call	0x1546	;  0x1546
    2fec:	be 01       	movw	r22, r28
    2fee:	6f 5f       	subi	r22, 0xFF	; 255
    2ff0:	7f 4f       	sbci	r23, 0xFF	; 255
    2ff2:	88 ef       	ldi	r24, 0xF8	; 248
    2ff4:	93 e0       	ldi	r25, 0x03	; 3
    2ff6:	0e 94 ef 05 	call	0xbde	;  0xbde
    2ffa:	69 8d       	ldd	r22, Y+25	; 0x19
    2ffc:	7a 8d       	ldd	r23, Y+26	; 0x1a
    2ffe:	8b 8d       	ldd	r24, Y+27	; 0x1b
    3000:	9c 8d       	ldd	r25, Y+28	; 0x1c
    3002:	0e 94 d6 09 	call	0x13ac	;  0x13ac
    3006:	89 e5       	ldi	r24, 0x59	; 89
    3008:	92 e0       	ldi	r25, 0x02	; 2
    300a:	0e 94 a3 0a 	call	0x1546	;  0x1546
    300e:	be 01       	movw	r22, r28
    3010:	6f 5f       	subi	r22, 0xFF	; 255
    3012:	7f 4f       	sbci	r23, 0xFF	; 255
    3014:	88 ef       	ldi	r24, 0xF8	; 248
    3016:	93 e0       	ldi	r25, 0x03	; 3
    3018:	0e 94 ef 05 	call	0xbde	;  0xbde
    301c:	6d 8d       	ldd	r22, Y+29	; 0x1d
    301e:	7e 8d       	ldd	r23, Y+30	; 0x1e
    3020:	8f 8d       	ldd	r24, Y+31	; 0x1f
    3022:	98 a1       	ldd	r25, Y+32	; 0x20
    3024:	0e 94 d6 09 	call	0x13ac	;  0x13ac
    3028:	8f e5       	ldi	r24, 0x5F	; 95
    302a:	92 e0       	ldi	r25, 0x02	; 2
    302c:	0e 94 c8 09 	call	0x1390	;  0x1390
    3030:	86 e6       	ldi	r24, 0x66	; 102
    3032:	92 e0       	ldi	r25, 0x02	; 2
    3034:	0e 94 a3 0a 	call	0x1546	;  0x1546
    3038:	82 e1       	ldi	r24, 0x12	; 18
    303a:	0e 94 d2 02 	call	0x5a4	;  0x5a4
    303e:	bc 01       	movw	r22, r24
    3040:	99 0f       	add	r25, r25
    3042:	88 0b       	sbc	r24, r24
    3044:	99 0b       	sbc	r25, r25
    3046:	0e 94 cd 1a 	call	0x359a	;  0x359a
    304a:	9b 01       	movw	r18, r22
    304c:	ac 01       	movw	r20, r24
    304e:	60 ef       	ldi	r22, 0xF0	; 240
    3050:	78 e1       	ldi	r23, 0x18	; 24
    3052:	8c e1       	ldi	r24, 0x1C	; 28
    3054:	9b e4       	ldi	r25, 0x4B	; 75
    3056:	0e 94 23 1a 	call	0x3446	;  0x3446
    305a:	20 e0       	ldi	r18, 0x00	; 0
    305c:	30 e4       	ldi	r19, 0x40	; 64
    305e:	4c e1       	ldi	r20, 0x1C	; 28
    3060:	56 e4       	ldi	r21, 0x46	; 70
    3062:	0e 94 b1 19 	call	0x3362	;  0x3362
    3066:	20 e0       	ldi	r18, 0x00	; 0
    3068:	30 e4       	ldi	r19, 0x40	; 64
    306a:	4c e1       	ldi	r20, 0x1C	; 28
    306c:	56 e4       	ldi	r21, 0x46	; 70
    306e:	0e 94 23 1a 	call	0x3446	;  0x3446
    3072:	0e 94 8a 1b 	call	0x3714	;  0x3714
    3076:	20 e0       	ldi	r18, 0x00	; 0
    3078:	30 ee       	ldi	r19, 0xE0	; 224
    307a:	46 e7       	ldi	r20, 0x76	; 118
    307c:	55 e4       	ldi	r21, 0x45	; 69
    307e:	0e 94 23 1a 	call	0x3446	;  0x3446
    3082:	2f e0       	ldi	r18, 0x0F	; 15
    3084:	3f ec       	ldi	r19, 0xCF	; 207
    3086:	4b e5       	ldi	r20, 0x5B	; 91
    3088:	5b e3       	ldi	r21, 0x3B	; 59
    308a:	0e 94 b2 19 	call	0x3364	;  0x3364
    308e:	9b 01       	movw	r18, r22
    3090:	ac 01       	movw	r20, r24
    3092:	60 e0       	ldi	r22, 0x00	; 0
    3094:	70 e0       	ldi	r23, 0x00	; 0
    3096:	80 e8       	ldi	r24, 0x80	; 128
    3098:	9f e3       	ldi	r25, 0x3F	; 63
    309a:	0e 94 23 1a 	call	0x3446	;  0x3446
    309e:	23 e3       	ldi	r18, 0x33	; 51
    30a0:	33 e9       	ldi	r19, 0x93	; 147
    30a2:	48 e8       	ldi	r20, 0x88	; 136
    30a4:	53 e4       	ldi	r21, 0x43	; 67
    30a6:	0e 94 b1 19 	call	0x3362	;  0x3362
    30aa:	0e 94 d6 09 	call	0x13ac	;  0x13ac
    30ae:	83 e7       	ldi	r24, 0x73	; 115
    30b0:	92 e0       	ldi	r25, 0x02	; 2
    30b2:	0e 94 c8 09 	call	0x1390	;  0x1390
    30b6:	80 e0       	ldi	r24, 0x00	; 0
    30b8:	90 e0       	ldi	r25, 0x00	; 0
    30ba:	89 2b       	or	r24, r25
    30bc:	09 f4       	brne	.+2      	;  0x30c0
    30be:	1d cc       	rjmp	.-1990   	;  0x28fa
    30c0:	0e 94 00 00 	call	0	;  0x0
    30c4:	1a cc       	rjmp	.-1996   	;  0x28fa
    30c6:	86 e0       	ldi	r24, 0x06	; 6
    30c8:	be cd       	rjmp	.-1156   	;  0x2c46
    30ca:	2f ef       	ldi	r18, 0xFF	; 255
    30cc:	c2 16       	cp	r12, r18
    30ce:	d1 04       	cpc	r13, r1
    30d0:	e1 04       	cpc	r14, r1
    30d2:	f1 04       	cpc	r15, r1
    30d4:	11 f0       	breq	.+4      	;  0x30da
    30d6:	08 f0       	brcs	.+2      	;  0x30da
    30d8:	e8 cd       	rjmp	.-1072   	;  0x2caa
    30da:	84 e0       	ldi	r24, 0x04	; 4
    30dc:	b4 cd       	rjmp	.-1176   	;  0x2c46
    30de:	9f ef       	ldi	r25, 0xFF	; 255
    30e0:	c9 16       	cp	r12, r25
    30e2:	d1 04       	cpc	r13, r1
    30e4:	e1 04       	cpc	r14, r1
    30e6:	f1 04       	cpc	r15, r1
    30e8:	c9 f0       	breq	.+50     	;  0x311c
    30ea:	c0 f0       	brcs	.+48     	;  0x311c
    30ec:	69 e0       	ldi	r22, 0x09	; 9
    30ee:	7d e3       	ldi	r23, 0x3D	; 61
    30f0:	80 e0       	ldi	r24, 0x00	; 0
    30f2:	90 e0       	ldi	r25, 0x00	; 0
    30f4:	a3 01       	movw	r20, r6
    30f6:	92 01       	movw	r18, r4
    30f8:	0e 94 7d 19 	call	0x32fa	;  0x32fa
    30fc:	69 01       	movw	r12, r18
    30fe:	7a 01       	movw	r14, r20
    3100:	61 e0       	ldi	r22, 0x01	; 1
    3102:	c6 1a       	sub	r12, r22
    3104:	d1 08       	sbc	r13, r1
    3106:	e1 08       	sbc	r14, r1
    3108:	f1 08       	sbc	r15, r1
    310a:	8f ef       	ldi	r24, 0xFF	; 255
    310c:	c8 16       	cp	r12, r24
    310e:	d1 04       	cpc	r13, r1
    3110:	e1 04       	cpc	r14, r1
    3112:	f1 04       	cpc	r15, r1
    3114:	09 f0       	breq	.+2      	;  0x3118
    3116:	20 f4       	brcc	.+8      	;  0x3120
    3118:	84 e0       	ldi	r24, 0x04	; 4
    311a:	f1 cd       	rjmp	.-1054   	;  0x2cfe
    311c:	83 e0       	ldi	r24, 0x03	; 3
    311e:	ef cd       	rjmp	.-1058   	;  0x2cfe
    3120:	d5 01       	movw	r26, r10
    3122:	c4 01       	movw	r24, r8
    3124:	2a e0       	ldi	r18, 0x0A	; 10
    3126:	b5 95       	asr	r27
    3128:	a7 95       	ror	r26
    312a:	97 95       	ror	r25
    312c:	87 95       	ror	r24
    312e:	2a 95       	dec	r18
    3130:	d1 f7       	brne	.-12     	;  0x3126
    3132:	6c 01       	movw	r12, r24
    3134:	7d 01       	movw	r14, r26
    3136:	e1 e0       	ldi	r30, 0x01	; 1
    3138:	ce 1a       	sub	r12, r30
    313a:	d1 08       	sbc	r13, r1
    313c:	e1 08       	sbc	r14, r1
    313e:	f1 08       	sbc	r15, r1
    3140:	dd cd       	rjmp	.-1094   	;  0x2cfc
    3142:	83 ee       	ldi	r24, 0xE3	; 227
    3144:	93 e0       	ldi	r25, 0x03	; 3
    3146:	0c 94 4c 05 	jmp	0xa98	;  0xa98
    314a:	cf 93       	push	r28
    314c:	df 93       	push	r29
    314e:	10 92 8a 03 	sts	0x038A, r1	;  0x80038a
    3152:	10 92 89 03 	sts	0x0389, r1	;  0x800389
    3156:	88 ee       	ldi	r24, 0xE8	; 232
    3158:	93 e0       	ldi	r25, 0x03	; 3
    315a:	a0 e0       	ldi	r26, 0x00	; 0
    315c:	b0 e0       	ldi	r27, 0x00	; 0
    315e:	80 93 8b 03 	sts	0x038B, r24	;  0x80038b
    3162:	90 93 8c 03 	sts	0x038C, r25	;  0x80038c
    3166:	a0 93 8d 03 	sts	0x038D, r26	;  0x80038d
    316a:	b0 93 8e 03 	sts	0x038E, r27	;  0x80038e
    316e:	2e e1       	ldi	r18, 0x1E	; 30
    3170:	31 e0       	ldi	r19, 0x01	; 1
    3172:	30 93 88 03 	sts	0x0388, r19	;  0x800388
    3176:	20 93 87 03 	sts	0x0387, r18	;  0x800387
    317a:	2f ef       	ldi	r18, 0xFF	; 255
    317c:	3f ef       	ldi	r19, 0xFF	; 255
    317e:	30 93 94 03 	sts	0x0394, r19	;  0x800394
    3182:	20 93 93 03 	sts	0x0393, r18	;  0x800393
    3186:	10 92 da 03 	sts	0x03DA, r1	;  0x8003da
    318a:	10 92 d9 03 	sts	0x03D9, r1	;  0x8003d9
    318e:	80 93 db 03 	sts	0x03DB, r24	;  0x8003db
    3192:	90 93 dc 03 	sts	0x03DC, r25	;  0x8003dc
    3196:	a0 93 dd 03 	sts	0x03DD, r26	;  0x8003dd
    319a:	b0 93 de 03 	sts	0x03DE, r27	;  0x8003de
    319e:	8e e2       	ldi	r24, 0x2E	; 46
    31a0:	91 e0       	ldi	r25, 0x01	; 1
    31a2:	90 93 d8 03 	sts	0x03D8, r25	;  0x8003d8
    31a6:	80 93 d7 03 	sts	0x03D7, r24	;  0x8003d7
    31aa:	10 92 0a 05 	sts	0x050A, r1	;  0x80050a
    31ae:	10 92 0c 05 	sts	0x050C, r1	;  0x80050c
    31b2:	10 92 0b 05 	sts	0x050B, r1	;  0x80050b
    31b6:	10 92 0d 05 	sts	0x050D, r1	;  0x80050d
    31ba:	10 92 0e 05 	sts	0x050E, r1	;  0x80050e
    31be:	10 92 0f 05 	sts	0x050F, r1	;  0x80050f
    31c2:	e0 e1       	ldi	r30, 0x10	; 16
    31c4:	f5 e0       	ldi	r31, 0x05	; 5
    31c6:	80 e4       	ldi	r24, 0x40	; 64
    31c8:	8e 0f       	add	r24, r30
    31ca:	11 92       	st	Z+, r1
    31cc:	8e 13       	cpse	r24, r30
    31ce:	fd cf       	rjmp	.-6      	;  0x31ca
    31d0:	10 92 50 05 	sts	0x0550, r1	;  0x800550
    31d4:	10 92 52 05 	sts	0x0552, r1	;  0x800552
    31d8:	10 92 51 05 	sts	0x0551, r1	;  0x800551
    31dc:	e0 91 b9 05 	lds	r30, 0x05B9	;  0x8005b9
    31e0:	f0 91 ba 05 	lds	r31, 0x05BA	;  0x8005ba
    31e4:	30 97       	sbiw	r30, 0x00	; 0
    31e6:	09 f0       	breq	.+2      	;  0x31ea
    31e8:	09 95       	icall
    31ea:	91 e0       	ldi	r25, 0x01	; 1
    31ec:	90 93 e3 03 	sts	0x03E3, r25	;  0x8003e3
    31f0:	10 92 e4 03 	sts	0x03E4, r1	;  0x8003e4
    31f4:	10 92 e6 03 	sts	0x03E6, r1	;  0x8003e6
    31f8:	10 92 e5 03 	sts	0x03E5, r1	;  0x8003e5
    31fc:	10 92 e8 03 	sts	0x03E8, r1	;  0x8003e8
    3200:	10 92 e7 03 	sts	0x03E7, r1	;  0x8003e7
    3204:	8f ef       	ldi	r24, 0xFF	; 255
    3206:	80 93 e9 03 	sts	0x03E9, r24	;  0x8003e9
    320a:	10 92 ea 03 	sts	0x03EA, r1	;  0x8003ea
    320e:	10 92 ec 03 	sts	0x03EC, r1	;  0x8003ec
    3212:	10 92 eb 03 	sts	0x03EB, r1	;  0x8003eb
    3216:	90 93 ed 03 	sts	0x03ED, r25	;  0x8003ed
    321a:	10 92 ee 03 	sts	0x03EE, r1	;  0x8003ee
    321e:	22 e0       	ldi	r18, 0x02	; 2
    3220:	20 93 ef 03 	sts	0x03EF, r18	;  0x8003ef
    3224:	90 93 f0 03 	sts	0x03F0, r25	;  0x8003f0
    3228:	10 92 f1 03 	sts	0x03F1, r1	;  0x8003f1
    322c:	10 92 f2 03 	sts	0x03F2, r1	;  0x8003f2
    3230:	10 92 f3 03 	sts	0x03F3, r1	;  0x8003f3
    3234:	10 92 f4 03 	sts	0x03F4, r1	;  0x8003f4
    3238:	2e e3       	ldi	r18, 0x3E	; 62
    323a:	31 e0       	ldi	r19, 0x01	; 1
    323c:	30 93 f9 03 	sts	0x03F9, r19	;  0x8003f9
    3240:	20 93 f8 03 	sts	0x03F8, r18	;  0x8003f8
    3244:	4f ef       	ldi	r20, 0xFF	; 255
    3246:	5f ef       	ldi	r21, 0xFF	; 255
    3248:	ba 01       	movw	r22, r20
    324a:	40 93 0d 04 	sts	0x040D, r20	;  0x80040d
    324e:	50 93 0e 04 	sts	0x040E, r21	;  0x80040e
    3252:	60 93 0f 04 	sts	0x040F, r22	;  0x80040f
    3256:	70 93 10 04 	sts	0x0410, r23	;  0x800410
    325a:	80 93 12 04 	sts	0x0412, r24	;  0x800412
    325e:	80 93 13 04 	sts	0x0413, r24	;  0x800413
    3262:	80 93 14 04 	sts	0x0414, r24	;  0x800414
    3266:	80 93 15 04 	sts	0x0415, r24	;  0x800415
    326a:	10 92 17 04 	sts	0x0417, r1	;  0x800417
    326e:	c0 e0       	ldi	r28, 0x00	; 0
    3270:	d0 e0       	ldi	r29, 0x00	; 0
    3272:	40 e0       	ldi	r20, 0x00	; 0
    3274:	60 e0       	ldi	r22, 0x00	; 0
    3276:	ce 01       	movw	r24, r28
    3278:	88 5e       	subi	r24, 0xE8	; 232
    327a:	9b 4f       	sbci	r25, 0xFB	; 251
    327c:	0e 94 d1 04 	call	0x9a2	;  0x9a2
    3280:	6e 96       	adiw	r28, 0x1e	; 30
    3282:	c0 3f       	cpi	r28, 0xF0	; 240
    3284:	d1 05       	cpc	r29, r1
    3286:	a9 f7       	brne	.-22     	;  0x3272
    3288:	df 91       	pop	r29
    328a:	cf 91       	pop	r28
    328c:	08 95       	ret
    328e:	aa 1b       	sub	r26, r26
    3290:	bb 1b       	sub	r27, r27
    3292:	51 e1       	ldi	r21, 0x11	; 17
    3294:	07 c0       	rjmp	.+14     	;  0x32a4
    3296:	aa 1f       	adc	r26, r26
    3298:	bb 1f       	adc	r27, r27
    329a:	a6 17       	cp	r26, r22
    329c:	b7 07       	cpc	r27, r23
    329e:	10 f0       	brcs	.+4      	;  0x32a4
    32a0:	a6 1b       	sub	r26, r22
    32a2:	b7 0b       	sbc	r27, r23
    32a4:	88 1f       	adc	r24, r24
    32a6:	99 1f       	adc	r25, r25
    32a8:	5a 95       	dec	r21
    32aa:	a9 f7       	brne	.-22     	;  0x3296
    32ac:	80 95       	com	r24
    32ae:	90 95       	com	r25
    32b0:	bc 01       	movw	r22, r24
    32b2:	cd 01       	movw	r24, r26
    32b4:	08 95       	ret
    32b6:	a1 e2       	ldi	r26, 0x21	; 33
    32b8:	1a 2e       	mov	r1, r26
    32ba:	aa 1b       	sub	r26, r26
    32bc:	bb 1b       	sub	r27, r27
    32be:	fd 01       	movw	r30, r26
    32c0:	0d c0       	rjmp	.+26     	;  0x32dc
    32c2:	aa 1f       	adc	r26, r26
    32c4:	bb 1f       	adc	r27, r27
    32c6:	ee 1f       	adc	r30, r30
    32c8:	ff 1f       	adc	r31, r31
    32ca:	a2 17       	cp	r26, r18
    32cc:	b3 07       	cpc	r27, r19
    32ce:	e4 07       	cpc	r30, r20
    32d0:	f5 07       	cpc	r31, r21
    32d2:	20 f0       	brcs	.+8      	;  0x32dc
    32d4:	a2 1b       	sub	r26, r18
    32d6:	b3 0b       	sbc	r27, r19
    32d8:	e4 0b       	sbc	r30, r20
    32da:	f5 0b       	sbc	r31, r21
    32dc:	66 1f       	adc	r22, r22
    32de:	77 1f       	adc	r23, r23
    32e0:	88 1f       	adc	r24, r24
    32e2:	99 1f       	adc	r25, r25
    32e4:	1a 94       	dec	r1
    32e6:	69 f7       	brne	.-38     	;  0x32c2
    32e8:	60 95       	com	r22
    32ea:	70 95       	com	r23
    32ec:	80 95       	com	r24
    32ee:	90 95       	com	r25
    32f0:	9b 01       	movw	r18, r22
    32f2:	ac 01       	movw	r20, r24
    32f4:	bd 01       	movw	r22, r26
    32f6:	cf 01       	movw	r24, r30
    32f8:	08 95       	ret
    32fa:	05 2e       	mov	r0, r21
    32fc:	97 fb       	bst	r25, 7
    32fe:	1e f4       	brtc	.+6      	;  0x3306
    3300:	00 94       	com	r0
    3302:	0e 94 94 19 	call	0x3328	;  0x3328
    3306:	57 fd       	sbrc	r21, 7
    3308:	07 d0       	rcall	.+14     	;  0x3318
    330a:	0e 94 5b 19 	call	0x32b6	;  0x32b6
    330e:	07 fc       	sbrc	r0, 7
    3310:	03 d0       	rcall	.+6      	;  0x3318
    3312:	4e f4       	brtc	.+18     	;  0x3326
    3314:	0c 94 94 19 	jmp	0x3328	;  0x3328
    3318:	50 95       	com	r21
    331a:	40 95       	com	r20
    331c:	30 95       	com	r19
    331e:	21 95       	neg	r18
    3320:	3f 4f       	sbci	r19, 0xFF	; 255
    3322:	4f 4f       	sbci	r20, 0xFF	; 255
    3324:	5f 4f       	sbci	r21, 0xFF	; 255
    3326:	08 95       	ret
    3328:	90 95       	com	r25
    332a:	80 95       	com	r24
    332c:	70 95       	com	r23
    332e:	61 95       	neg	r22
    3330:	7f 4f       	sbci	r23, 0xFF	; 255
    3332:	8f 4f       	sbci	r24, 0xFF	; 255
    3334:	9f 4f       	sbci	r25, 0xFF	; 255
    3336:	08 95       	ret
    3338:	ee 0f       	add	r30, r30
    333a:	ff 1f       	adc	r31, r31
    333c:	05 90       	lpm	r0, Z+
    333e:	f4 91       	lpm	r31, Z
    3340:	e0 2d       	mov	r30, r0
    3342:	09 94       	ijmp
    3344:	a2 9f       	mul	r26, r18
    3346:	b0 01       	movw	r22, r0
    3348:	b3 9f       	mul	r27, r19
    334a:	c0 01       	movw	r24, r0
    334c:	a3 9f       	mul	r26, r19
    334e:	70 0d       	add	r23, r0
    3350:	81 1d       	adc	r24, r1
    3352:	11 24       	eor	r1, r1
    3354:	91 1d       	adc	r25, r1
    3356:	b2 9f       	mul	r27, r18
    3358:	70 0d       	add	r23, r0
    335a:	81 1d       	adc	r24, r1
    335c:	11 24       	eor	r1, r1
    335e:	91 1d       	adc	r25, r1
    3360:	08 95       	ret
    3362:	50 58       	subi	r21, 0x80	; 128
    3364:	bb 27       	eor	r27, r27
    3366:	aa 27       	eor	r26, r26
    3368:	0e 94 c9 19 	call	0x3392	;  0x3392
    336c:	0c 94 43 1b 	jmp	0x3686	;  0x3686
    3370:	0e 94 35 1b 	call	0x366a	;  0x366a
    3374:	38 f0       	brcs	.+14     	;  0x3384
    3376:	0e 94 3c 1b 	call	0x3678	;  0x3678
    337a:	20 f0       	brcs	.+8      	;  0x3384
    337c:	39 f4       	brne	.+14     	;  0x338c
    337e:	9f 3f       	cpi	r25, 0xFF	; 255
    3380:	19 f4       	brne	.+6      	;  0x3388
    3382:	26 f4       	brtc	.+8      	;  0x338c
    3384:	0c 94 32 1b 	jmp	0x3664	;  0x3664
    3388:	0e f4       	brtc	.+2      	;  0x338c
    338a:	e0 95       	com	r30
    338c:	e7 fb       	bst	r30, 7
    338e:	0c 94 2c 1b 	jmp	0x3658	;  0x3658
    3392:	e9 2f       	mov	r30, r25
    3394:	0e 94 54 1b 	call	0x36a8	;  0x36a8
    3398:	58 f3       	brcs	.-42     	;  0x3370
    339a:	ba 17       	cp	r27, r26
    339c:	62 07       	cpc	r22, r18
    339e:	73 07       	cpc	r23, r19
    33a0:	84 07       	cpc	r24, r20
    33a2:	95 07       	cpc	r25, r21
    33a4:	20 f0       	brcs	.+8      	;  0x33ae
    33a6:	79 f4       	brne	.+30     	;  0x33c6
    33a8:	a6 f5       	brtc	.+104    	;  0x3412
    33aa:	0c 94 76 1b 	jmp	0x36ec	;  0x36ec
    33ae:	0e f4       	brtc	.+2      	;  0x33b2
    33b0:	e0 95       	com	r30
    33b2:	0b 2e       	mov	r0, r27
    33b4:	ba 2f       	mov	r27, r26
    33b6:	a0 2d       	mov	r26, r0
    33b8:	0b 01       	movw	r0, r22
    33ba:	b9 01       	movw	r22, r18
    33bc:	90 01       	movw	r18, r0
    33be:	0c 01       	movw	r0, r24
    33c0:	ca 01       	movw	r24, r20
    33c2:	a0 01       	movw	r20, r0
    33c4:	11 24       	eor	r1, r1
    33c6:	ff 27       	eor	r31, r31
    33c8:	59 1b       	sub	r21, r25
    33ca:	99 f0       	breq	.+38     	;  0x33f2
    33cc:	59 3f       	cpi	r21, 0xF9	; 249
    33ce:	50 f4       	brcc	.+20     	;  0x33e4
    33d0:	50 3e       	cpi	r21, 0xE0	; 224
    33d2:	68 f1       	brcs	.+90     	;  0x342e
    33d4:	1a 16       	cp	r1, r26
    33d6:	f0 40       	sbci	r31, 0x00	; 0
    33d8:	a2 2f       	mov	r26, r18
    33da:	23 2f       	mov	r18, r19
    33dc:	34 2f       	mov	r19, r20
    33de:	44 27       	eor	r20, r20
    33e0:	58 5f       	subi	r21, 0xF8	; 248
    33e2:	f3 cf       	rjmp	.-26     	;  0x33ca
    33e4:	46 95       	lsr	r20
    33e6:	37 95       	ror	r19
    33e8:	27 95       	ror	r18
    33ea:	a7 95       	ror	r26
    33ec:	f0 40       	sbci	r31, 0x00	; 0
    33ee:	53 95       	inc	r21
    33f0:	c9 f7       	brne	.-14     	;  0x33e4
    33f2:	7e f4       	brtc	.+30     	;  0x3412
    33f4:	1f 16       	cp	r1, r31
    33f6:	ba 0b       	sbc	r27, r26
    33f8:	62 0b       	sbc	r22, r18
    33fa:	73 0b       	sbc	r23, r19
    33fc:	84 0b       	sbc	r24, r20
    33fe:	ba f0       	brmi	.+46     	;  0x342e
    3400:	91 50       	subi	r25, 0x01	; 1
    3402:	a1 f0       	breq	.+40     	;  0x342c
    3404:	ff 0f       	add	r31, r31
    3406:	bb 1f       	adc	r27, r27
    3408:	66 1f       	adc	r22, r22
    340a:	77 1f       	adc	r23, r23
    340c:	88 1f       	adc	r24, r24
    340e:	c2 f7       	brpl	.-16     	;  0x3400
    3410:	0e c0       	rjmp	.+28     	;  0x342e
    3412:	ba 0f       	add	r27, r26
    3414:	62 1f       	adc	r22, r18
    3416:	73 1f       	adc	r23, r19
    3418:	84 1f       	adc	r24, r20
    341a:	48 f4       	brcc	.+18     	;  0x342e
    341c:	87 95       	ror	r24
    341e:	77 95       	ror	r23
    3420:	67 95       	ror	r22
    3422:	b7 95       	ror	r27
    3424:	f7 95       	ror	r31
    3426:	9e 3f       	cpi	r25, 0xFE	; 254
    3428:	08 f0       	brcs	.+2      	;  0x342c
    342a:	b0 cf       	rjmp	.-160    	;  0x338c
    342c:	93 95       	inc	r25
    342e:	88 0f       	add	r24, r24
    3430:	08 f0       	brcs	.+2      	;  0x3434
    3432:	99 27       	eor	r25, r25
    3434:	ee 0f       	add	r30, r30
    3436:	97 95       	ror	r25
    3438:	87 95       	ror	r24
    343a:	08 95       	ret
    343c:	0e 94 08 1b 	call	0x3610	;  0x3610
    3440:	08 f4       	brcc	.+2      	;  0x3444
    3442:	81 e0       	ldi	r24, 0x01	; 1
    3444:	08 95       	ret
    3446:	0e 94 37 1a 	call	0x346e	;  0x346e
    344a:	0c 94 43 1b 	jmp	0x3686	;  0x3686
    344e:	0e 94 3c 1b 	call	0x3678	;  0x3678
    3452:	58 f0       	brcs	.+22     	;  0x346a
    3454:	0e 94 35 1b 	call	0x366a	;  0x366a
    3458:	40 f0       	brcs	.+16     	;  0x346a
    345a:	29 f4       	brne	.+10     	;  0x3466
    345c:	5f 3f       	cpi	r21, 0xFF	; 255
    345e:	29 f0       	breq	.+10     	;  0x346a
    3460:	0c 94 2c 1b 	jmp	0x3658	;  0x3658
    3464:	51 11       	cpse	r21, r1
    3466:	0c 94 77 1b 	jmp	0x36ee	;  0x36ee
    346a:	0c 94 32 1b 	jmp	0x3664	;  0x3664
    346e:	0e 94 54 1b 	call	0x36a8	;  0x36a8
    3472:	68 f3       	brcs	.-38     	;  0x344e
    3474:	99 23       	and	r25, r25
    3476:	b1 f3       	breq	.-20     	;  0x3464
    3478:	55 23       	and	r21, r21
    347a:	91 f3       	breq	.-28     	;  0x3460
    347c:	95 1b       	sub	r25, r21
    347e:	55 0b       	sbc	r21, r21
    3480:	bb 27       	eor	r27, r27
    3482:	aa 27       	eor	r26, r26
    3484:	62 17       	cp	r22, r18
    3486:	73 07       	cpc	r23, r19
    3488:	84 07       	cpc	r24, r20
    348a:	38 f0       	brcs	.+14     	;  0x349a
    348c:	9f 5f       	subi	r25, 0xFF	; 255
    348e:	5f 4f       	sbci	r21, 0xFF	; 255
    3490:	22 0f       	add	r18, r18
    3492:	33 1f       	adc	r19, r19
    3494:	44 1f       	adc	r20, r20
    3496:	aa 1f       	adc	r26, r26
    3498:	a9 f3       	breq	.-22     	;  0x3484
    349a:	35 d0       	rcall	.+106    	;  0x3506
    349c:	0e 2e       	mov	r0, r30
    349e:	3a f0       	brmi	.+14     	;  0x34ae
    34a0:	e0 e8       	ldi	r30, 0x80	; 128
    34a2:	32 d0       	rcall	.+100    	;  0x3508
    34a4:	91 50       	subi	r25, 0x01	; 1
    34a6:	50 40       	sbci	r21, 0x00	; 0
    34a8:	e6 95       	lsr	r30
    34aa:	00 1c       	adc	r0, r0
    34ac:	ca f7       	brpl	.-14     	;  0x34a0
    34ae:	2b d0       	rcall	.+86     	;  0x3506
    34b0:	fe 2f       	mov	r31, r30
    34b2:	29 d0       	rcall	.+82     	;  0x3506
    34b4:	66 0f       	add	r22, r22
    34b6:	77 1f       	adc	r23, r23
    34b8:	88 1f       	adc	r24, r24
    34ba:	bb 1f       	adc	r27, r27
    34bc:	26 17       	cp	r18, r22
    34be:	37 07       	cpc	r19, r23
    34c0:	48 07       	cpc	r20, r24
    34c2:	ab 07       	cpc	r26, r27
    34c4:	b0 e8       	ldi	r27, 0x80	; 128
    34c6:	09 f0       	breq	.+2      	;  0x34ca
    34c8:	bb 0b       	sbc	r27, r27
    34ca:	80 2d       	mov	r24, r0
    34cc:	bf 01       	movw	r22, r30
    34ce:	ff 27       	eor	r31, r31
    34d0:	93 58       	subi	r25, 0x83	; 131
    34d2:	5f 4f       	sbci	r21, 0xFF	; 255
    34d4:	3a f0       	brmi	.+14     	;  0x34e4
    34d6:	9e 3f       	cpi	r25, 0xFE	; 254
    34d8:	51 05       	cpc	r21, r1
    34da:	78 f0       	brcs	.+30     	;  0x34fa
    34dc:	0c 94 2c 1b 	jmp	0x3658	;  0x3658
    34e0:	0c 94 77 1b 	jmp	0x36ee	;  0x36ee
    34e4:	5f 3f       	cpi	r21, 0xFF	; 255
    34e6:	e4 f3       	brlt	.-8      	;  0x34e0
    34e8:	98 3e       	cpi	r25, 0xE8	; 232
    34ea:	d4 f3       	brlt	.-12     	;  0x34e0
    34ec:	86 95       	lsr	r24
    34ee:	77 95       	ror	r23
    34f0:	67 95       	ror	r22
    34f2:	b7 95       	ror	r27
    34f4:	f7 95       	ror	r31
    34f6:	9f 5f       	subi	r25, 0xFF	; 255
    34f8:	c9 f7       	brne	.-14     	;  0x34ec
    34fa:	88 0f       	add	r24, r24
    34fc:	91 1d       	adc	r25, r1
    34fe:	96 95       	lsr	r25
    3500:	87 95       	ror	r24
    3502:	97 f9       	bld	r25, 7
    3504:	08 95       	ret
    3506:	e1 e0       	ldi	r30, 0x01	; 1
    3508:	66 0f       	add	r22, r22
    350a:	77 1f       	adc	r23, r23
    350c:	88 1f       	adc	r24, r24
    350e:	bb 1f       	adc	r27, r27
    3510:	62 17       	cp	r22, r18
    3512:	73 07       	cpc	r23, r19
    3514:	84 07       	cpc	r24, r20
    3516:	ba 07       	cpc	r27, r26
    3518:	20 f0       	brcs	.+8      	;  0x3522
    351a:	62 1b       	sub	r22, r18
    351c:	73 0b       	sbc	r23, r19
    351e:	84 0b       	sbc	r24, r20
    3520:	ba 0b       	sbc	r27, r26
    3522:	ee 1f       	adc	r30, r30
    3524:	88 f7       	brcc	.-30     	;  0x3508
    3526:	e0 95       	com	r30
    3528:	08 95       	ret
    352a:	0e 94 9c 1a 	call	0x3538	;  0x3538
    352e:	68 94       	set
    3530:	b1 11       	cpse	r27, r1
    3532:	0c 94 77 1b 	jmp	0x36ee	;  0x36ee
    3536:	08 95       	ret
    3538:	0e 94 5c 1b 	call	0x36b8	;  0x36b8
    353c:	88 f0       	brcs	.+34     	;  0x3560
    353e:	9f 57       	subi	r25, 0x7F	; 127
    3540:	98 f0       	brcs	.+38     	;  0x3568
    3542:	b9 2f       	mov	r27, r25
    3544:	99 27       	eor	r25, r25
    3546:	b7 51       	subi	r27, 0x17	; 23
    3548:	b0 f0       	brcs	.+44     	;  0x3576
    354a:	e1 f0       	breq	.+56     	;  0x3584
    354c:	66 0f       	add	r22, r22
    354e:	77 1f       	adc	r23, r23
    3550:	88 1f       	adc	r24, r24
    3552:	99 1f       	adc	r25, r25
    3554:	1a f0       	brmi	.+6      	;  0x355c
    3556:	ba 95       	dec	r27
    3558:	c9 f7       	brne	.-14     	;  0x354c
    355a:	14 c0       	rjmp	.+40     	;  0x3584
    355c:	b1 30       	cpi	r27, 0x01	; 1
    355e:	91 f0       	breq	.+36     	;  0x3584
    3560:	0e 94 76 1b 	call	0x36ec	;  0x36ec
    3564:	b1 e0       	ldi	r27, 0x01	; 1
    3566:	08 95       	ret
    3568:	0c 94 76 1b 	jmp	0x36ec	;  0x36ec
    356c:	67 2f       	mov	r22, r23
    356e:	78 2f       	mov	r23, r24
    3570:	88 27       	eor	r24, r24
    3572:	b8 5f       	subi	r27, 0xF8	; 248
    3574:	39 f0       	breq	.+14     	;  0x3584
    3576:	b9 3f       	cpi	r27, 0xF9	; 249
    3578:	cc f3       	brlt	.-14     	;  0x356c
    357a:	86 95       	lsr	r24
    357c:	77 95       	ror	r23
    357e:	67 95       	ror	r22
    3580:	b3 95       	inc	r27
    3582:	d9 f7       	brne	.-10     	;  0x357a
    3584:	3e f4       	brtc	.+14     	;  0x3594
    3586:	90 95       	com	r25
    3588:	80 95       	com	r24
    358a:	70 95       	com	r23
    358c:	61 95       	neg	r22
    358e:	7f 4f       	sbci	r23, 0xFF	; 255
    3590:	8f 4f       	sbci	r24, 0xFF	; 255
    3592:	9f 4f       	sbci	r25, 0xFF	; 255
    3594:	08 95       	ret
    3596:	e8 94       	clt
    3598:	09 c0       	rjmp	.+18     	;  0x35ac
    359a:	97 fb       	bst	r25, 7
    359c:	3e f4       	brtc	.+14     	;  0x35ac
    359e:	90 95       	com	r25
    35a0:	80 95       	com	r24
    35a2:	70 95       	com	r23
    35a4:	61 95       	neg	r22
    35a6:	7f 4f       	sbci	r23, 0xFF	; 255
    35a8:	8f 4f       	sbci	r24, 0xFF	; 255
    35aa:	9f 4f       	sbci	r25, 0xFF	; 255
    35ac:	99 23       	and	r25, r25
    35ae:	a9 f0       	breq	.+42     	;  0x35da
    35b0:	f9 2f       	mov	r31, r25
    35b2:	96 e9       	ldi	r25, 0x96	; 150
    35b4:	bb 27       	eor	r27, r27
    35b6:	93 95       	inc	r25
    35b8:	f6 95       	lsr	r31
    35ba:	87 95       	ror	r24
    35bc:	77 95       	ror	r23
    35be:	67 95       	ror	r22
    35c0:	b7 95       	ror	r27
    35c2:	f1 11       	cpse	r31, r1
    35c4:	f8 cf       	rjmp	.-16     	;  0x35b6
    35c6:	fa f4       	brpl	.+62     	;  0x3606
    35c8:	bb 0f       	add	r27, r27
    35ca:	11 f4       	brne	.+4      	;  0x35d0
    35cc:	60 ff       	sbrs	r22, 0
    35ce:	1b c0       	rjmp	.+54     	;  0x3606
    35d0:	6f 5f       	subi	r22, 0xFF	; 255
    35d2:	7f 4f       	sbci	r23, 0xFF	; 255
    35d4:	8f 4f       	sbci	r24, 0xFF	; 255
    35d6:	9f 4f       	sbci	r25, 0xFF	; 255
    35d8:	16 c0       	rjmp	.+44     	;  0x3606
    35da:	88 23       	and	r24, r24
    35dc:	11 f0       	breq	.+4      	;  0x35e2
    35de:	96 e9       	ldi	r25, 0x96	; 150
    35e0:	11 c0       	rjmp	.+34     	;  0x3604
    35e2:	77 23       	and	r23, r23
    35e4:	21 f0       	breq	.+8      	;  0x35ee
    35e6:	9e e8       	ldi	r25, 0x8E	; 142
    35e8:	87 2f       	mov	r24, r23
    35ea:	76 2f       	mov	r23, r22
    35ec:	05 c0       	rjmp	.+10     	;  0x35f8
    35ee:	66 23       	and	r22, r22
    35f0:	71 f0       	breq	.+28     	;  0x360e
    35f2:	96 e8       	ldi	r25, 0x86	; 134
    35f4:	86 2f       	mov	r24, r22
    35f6:	70 e0       	ldi	r23, 0x00	; 0
    35f8:	60 e0       	ldi	r22, 0x00	; 0
    35fa:	2a f0       	brmi	.+10     	;  0x3606
    35fc:	9a 95       	dec	r25
    35fe:	66 0f       	add	r22, r22
    3600:	77 1f       	adc	r23, r23
    3602:	88 1f       	adc	r24, r24
    3604:	da f7       	brpl	.-10     	;  0x35fc
    3606:	88 0f       	add	r24, r24
    3608:	96 95       	lsr	r25
    360a:	87 95       	ror	r24
    360c:	97 f9       	bld	r25, 7
    360e:	08 95       	ret
    3610:	99 0f       	add	r25, r25
    3612:	00 08       	sbc	r0, r0
    3614:	55 0f       	add	r21, r21
    3616:	aa 0b       	sbc	r26, r26
    3618:	e0 e8       	ldi	r30, 0x80	; 128
    361a:	fe ef       	ldi	r31, 0xFE	; 254
    361c:	16 16       	cp	r1, r22
    361e:	17 06       	cpc	r1, r23
    3620:	e8 07       	cpc	r30, r24
    3622:	f9 07       	cpc	r31, r25
    3624:	c0 f0       	brcs	.+48     	;  0x3656
    3626:	12 16       	cp	r1, r18
    3628:	13 06       	cpc	r1, r19
    362a:	e4 07       	cpc	r30, r20
    362c:	f5 07       	cpc	r31, r21
    362e:	98 f0       	brcs	.+38     	;  0x3656
    3630:	62 1b       	sub	r22, r18
    3632:	73 0b       	sbc	r23, r19
    3634:	84 0b       	sbc	r24, r20
    3636:	95 0b       	sbc	r25, r21
    3638:	39 f4       	brne	.+14     	;  0x3648
    363a:	0a 26       	eor	r0, r26
    363c:	61 f0       	breq	.+24     	;  0x3656
    363e:	23 2b       	or	r18, r19
    3640:	24 2b       	or	r18, r20
    3642:	25 2b       	or	r18, r21
    3644:	21 f4       	brne	.+8      	;  0x364e
    3646:	08 95       	ret
    3648:	0a 26       	eor	r0, r26
    364a:	09 f4       	brne	.+2      	;  0x364e
    364c:	a1 40       	sbci	r26, 0x01	; 1
    364e:	a6 95       	lsr	r26
    3650:	8f ef       	ldi	r24, 0xFF	; 255
    3652:	81 1d       	adc	r24, r1
    3654:	81 1d       	adc	r24, r1
    3656:	08 95       	ret
    3658:	97 f9       	bld	r25, 7
    365a:	9f 67       	ori	r25, 0x7F	; 127
    365c:	80 e8       	ldi	r24, 0x80	; 128
    365e:	70 e0       	ldi	r23, 0x00	; 0
    3660:	60 e0       	ldi	r22, 0x00	; 0
    3662:	08 95       	ret
    3664:	9f ef       	ldi	r25, 0xFF	; 255
    3666:	80 ec       	ldi	r24, 0xC0	; 192
    3668:	08 95       	ret
    366a:	00 24       	eor	r0, r0
    366c:	0a 94       	dec	r0
    366e:	16 16       	cp	r1, r22
    3670:	17 06       	cpc	r1, r23
    3672:	18 06       	cpc	r1, r24
    3674:	09 06       	cpc	r0, r25
    3676:	08 95       	ret
    3678:	00 24       	eor	r0, r0
    367a:	0a 94       	dec	r0
    367c:	12 16       	cp	r1, r18
    367e:	13 06       	cpc	r1, r19
    3680:	14 06       	cpc	r1, r20
    3682:	05 06       	cpc	r0, r21
    3684:	08 95       	ret
    3686:	09 2e       	mov	r0, r25
    3688:	03 94       	inc	r0
    368a:	00 0c       	add	r0, r0
    368c:	11 f4       	brne	.+4      	;  0x3692
    368e:	88 23       	and	r24, r24
    3690:	52 f0       	brmi	.+20     	;  0x36a6
    3692:	bb 0f       	add	r27, r27
    3694:	40 f4       	brcc	.+16     	;  0x36a6
    3696:	bf 2b       	or	r27, r31
    3698:	11 f4       	brne	.+4      	;  0x369e
    369a:	60 ff       	sbrs	r22, 0
    369c:	04 c0       	rjmp	.+8      	;  0x36a6
    369e:	6f 5f       	subi	r22, 0xFF	; 255
    36a0:	7f 4f       	sbci	r23, 0xFF	; 255
    36a2:	8f 4f       	sbci	r24, 0xFF	; 255
    36a4:	9f 4f       	sbci	r25, 0xFF	; 255
    36a6:	08 95       	ret
    36a8:	57 fd       	sbrc	r21, 7
    36aa:	90 58       	subi	r25, 0x80	; 128
    36ac:	44 0f       	add	r20, r20
    36ae:	55 1f       	adc	r21, r21
    36b0:	59 f0       	breq	.+22     	;  0x36c8
    36b2:	5f 3f       	cpi	r21, 0xFF	; 255
    36b4:	71 f0       	breq	.+28     	;  0x36d2
    36b6:	47 95       	ror	r20
    36b8:	88 0f       	add	r24, r24
    36ba:	97 fb       	bst	r25, 7
    36bc:	99 1f       	adc	r25, r25
    36be:	61 f0       	breq	.+24     	;  0x36d8
    36c0:	9f 3f       	cpi	r25, 0xFF	; 255
    36c2:	79 f0       	breq	.+30     	;  0x36e2
    36c4:	87 95       	ror	r24
    36c6:	08 95       	ret
    36c8:	12 16       	cp	r1, r18
    36ca:	13 06       	cpc	r1, r19
    36cc:	14 06       	cpc	r1, r20
    36ce:	55 1f       	adc	r21, r21
    36d0:	f2 cf       	rjmp	.-28     	;  0x36b6
    36d2:	46 95       	lsr	r20
    36d4:	f1 df       	rcall	.-30     	;  0x36b8
    36d6:	08 c0       	rjmp	.+16     	;  0x36e8
    36d8:	16 16       	cp	r1, r22
    36da:	17 06       	cpc	r1, r23
    36dc:	18 06       	cpc	r1, r24
    36de:	99 1f       	adc	r25, r25
    36e0:	f1 cf       	rjmp	.-30     	;  0x36c4
    36e2:	86 95       	lsr	r24
    36e4:	71 05       	cpc	r23, r1
    36e6:	61 05       	cpc	r22, r1
    36e8:	08 94       	sec
    36ea:	08 95       	ret
    36ec:	e8 94       	clt
    36ee:	bb 27       	eor	r27, r27
    36f0:	66 27       	eor	r22, r22
    36f2:	77 27       	eor	r23, r23
    36f4:	cb 01       	movw	r24, r22
    36f6:	97 f9       	bld	r25, 7
    36f8:	08 95       	ret
    36fa:	0e 94 08 1b 	call	0x3610	;  0x3610
    36fe:	08 f4       	brcc	.+2      	;  0x3702
    3700:	8f ef       	ldi	r24, 0xFF	; 255
    3702:	08 95       	ret
    3704:	16 f0       	brts	.+4      	;  0x370a
    3706:	0c 94 44 1c 	jmp	0x3888	;  0x3888
    370a:	0c 94 32 1b 	jmp	0x3664	;  0x3664
    370e:	68 94       	set
    3710:	0c 94 2c 1b 	jmp	0x3658	;  0x3658
    3714:	0e 94 5c 1b 	call	0x36b8	;  0x36b8
    3718:	a8 f3       	brcs	.-22     	;  0x3704
    371a:	99 23       	and	r25, r25
    371c:	c1 f3       	breq	.-16     	;  0x370e
    371e:	ae f3       	brts	.-22     	;  0x370a
    3720:	df 93       	push	r29
    3722:	cf 93       	push	r28
    3724:	1f 93       	push	r17
    3726:	0f 93       	push	r16
    3728:	ff 92       	push	r15
    372a:	c9 2f       	mov	r28, r25
    372c:	dd 27       	eor	r29, r29
    372e:	88 23       	and	r24, r24
    3730:	2a f0       	brmi	.+10     	;  0x373c
    3732:	21 97       	sbiw	r28, 0x01	; 1
    3734:	66 0f       	add	r22, r22
    3736:	77 1f       	adc	r23, r23
    3738:	88 1f       	adc	r24, r24
    373a:	da f7       	brpl	.-10     	;  0x3732
    373c:	20 e0       	ldi	r18, 0x00	; 0
    373e:	30 e0       	ldi	r19, 0x00	; 0
    3740:	40 e8       	ldi	r20, 0x80	; 128
    3742:	5f eb       	ldi	r21, 0xBF	; 191
    3744:	9f e3       	ldi	r25, 0x3F	; 63
    3746:	88 39       	cpi	r24, 0x98	; 152
    3748:	20 f0       	brcs	.+8      	;  0x3752
    374a:	80 3e       	cpi	r24, 0xE0	; 224
    374c:	38 f0       	brcs	.+14     	;  0x375c
    374e:	21 96       	adiw	r28, 0x01	; 1
    3750:	8f 77       	andi	r24, 0x7F	; 127
    3752:	0e 94 b2 19 	call	0x3364	;  0x3364
    3756:	ea ec       	ldi	r30, 0xCA	; 202
    3758:	f0 e0       	ldi	r31, 0x00	; 0
    375a:	04 c0       	rjmp	.+8      	;  0x3764
    375c:	0e 94 b2 19 	call	0x3364	;  0x3364
    3760:	e7 ef       	ldi	r30, 0xF7	; 247
    3762:	f0 e0       	ldi	r31, 0x00	; 0
    3764:	0e 94 52 1c 	call	0x38a4	;  0x38a4
    3768:	8b 01       	movw	r16, r22
    376a:	be 01       	movw	r22, r28
    376c:	ec 01       	movw	r28, r24
    376e:	fb 2e       	mov	r15, r27
    3770:	6f 57       	subi	r22, 0x7F	; 127
    3772:	71 09       	sbc	r23, r1
    3774:	75 95       	asr	r23
    3776:	77 1f       	adc	r23, r23
    3778:	88 0b       	sbc	r24, r24
    377a:	99 0b       	sbc	r25, r25
    377c:	0e 94 cd 1a 	call	0x359a	;  0x359a
    3780:	28 e1       	ldi	r18, 0x18	; 24
    3782:	32 e7       	ldi	r19, 0x72	; 114
    3784:	41 e3       	ldi	r20, 0x31	; 49
    3786:	5f e3       	ldi	r21, 0x3F	; 63
    3788:	0e 94 e5 1b 	call	0x37ca	;  0x37ca
    378c:	af 2d       	mov	r26, r15
    378e:	98 01       	movw	r18, r16
    3790:	ae 01       	movw	r20, r28
    3792:	ff 90       	pop	r15
    3794:	0f 91       	pop	r16
    3796:	1f 91       	pop	r17
    3798:	cf 91       	pop	r28
    379a:	df 91       	pop	r29
    379c:	0e 94 c9 19 	call	0x3392	;  0x3392
    37a0:	0c 94 43 1b 	jmp	0x3686	;  0x3686
    37a4:	0e 94 e5 1b 	call	0x37ca	;  0x37ca
    37a8:	0c 94 43 1b 	jmp	0x3686	;  0x3686
    37ac:	0e 94 35 1b 	call	0x366a	;  0x366a
    37b0:	38 f0       	brcs	.+14     	;  0x37c0
    37b2:	0e 94 3c 1b 	call	0x3678	;  0x3678
    37b6:	20 f0       	brcs	.+8      	;  0x37c0
    37b8:	95 23       	and	r25, r21
    37ba:	11 f0       	breq	.+4      	;  0x37c0
    37bc:	0c 94 2c 1b 	jmp	0x3658	;  0x3658
    37c0:	0c 94 32 1b 	jmp	0x3664	;  0x3664
    37c4:	11 24       	eor	r1, r1
    37c6:	0c 94 77 1b 	jmp	0x36ee	;  0x36ee
    37ca:	0e 94 54 1b 	call	0x36a8	;  0x36a8
    37ce:	70 f3       	brcs	.-36     	;  0x37ac
    37d0:	95 9f       	mul	r25, r21
    37d2:	c1 f3       	breq	.-16     	;  0x37c4
    37d4:	95 0f       	add	r25, r21
    37d6:	50 e0       	ldi	r21, 0x00	; 0
    37d8:	55 1f       	adc	r21, r21
    37da:	62 9f       	mul	r22, r18
    37dc:	f0 01       	movw	r30, r0
    37de:	72 9f       	mul	r23, r18
    37e0:	bb 27       	eor	r27, r27
    37e2:	f0 0d       	add	r31, r0
    37e4:	b1 1d       	adc	r27, r1
    37e6:	63 9f       	mul	r22, r19
    37e8:	aa 27       	eor	r26, r26
    37ea:	f0 0d       	add	r31, r0
    37ec:	b1 1d       	adc	r27, r1
    37ee:	aa 1f       	adc	r26, r26
    37f0:	64 9f       	mul	r22, r20
    37f2:	66 27       	eor	r22, r22
    37f4:	b0 0d       	add	r27, r0
    37f6:	a1 1d       	adc	r26, r1
    37f8:	66 1f       	adc	r22, r22
    37fa:	82 9f       	mul	r24, r18
    37fc:	22 27       	eor	r18, r18
    37fe:	b0 0d       	add	r27, r0
    3800:	a1 1d       	adc	r26, r1
    3802:	62 1f       	adc	r22, r18
    3804:	73 9f       	mul	r23, r19
    3806:	b0 0d       	add	r27, r0
    3808:	a1 1d       	adc	r26, r1
    380a:	62 1f       	adc	r22, r18
    380c:	83 9f       	mul	r24, r19
    380e:	a0 0d       	add	r26, r0
    3810:	61 1d       	adc	r22, r1
    3812:	22 1f       	adc	r18, r18
    3814:	74 9f       	mul	r23, r20
    3816:	33 27       	eor	r19, r19
    3818:	a0 0d       	add	r26, r0
    381a:	61 1d       	adc	r22, r1
    381c:	23 1f       	adc	r18, r19
    381e:	84 9f       	mul	r24, r20
    3820:	60 0d       	add	r22, r0
    3822:	21 1d       	adc	r18, r1
    3824:	82 2f       	mov	r24, r18
    3826:	76 2f       	mov	r23, r22
    3828:	6a 2f       	mov	r22, r26
    382a:	11 24       	eor	r1, r1
    382c:	9f 57       	subi	r25, 0x7F	; 127
    382e:	50 40       	sbci	r21, 0x00	; 0
    3830:	9a f0       	brmi	.+38     	;  0x3858
    3832:	f1 f0       	breq	.+60     	;  0x3870
    3834:	88 23       	and	r24, r24
    3836:	4a f0       	brmi	.+18     	;  0x384a
    3838:	ee 0f       	add	r30, r30
    383a:	ff 1f       	adc	r31, r31
    383c:	bb 1f       	adc	r27, r27
    383e:	66 1f       	adc	r22, r22
    3840:	77 1f       	adc	r23, r23
    3842:	88 1f       	adc	r24, r24
    3844:	91 50       	subi	r25, 0x01	; 1
    3846:	50 40       	sbci	r21, 0x00	; 0
    3848:	a9 f7       	brne	.-22     	;  0x3834
    384a:	9e 3f       	cpi	r25, 0xFE	; 254
    384c:	51 05       	cpc	r21, r1
    384e:	80 f0       	brcs	.+32     	;  0x3870
    3850:	0c 94 2c 1b 	jmp	0x3658	;  0x3658
    3854:	0c 94 77 1b 	jmp	0x36ee	;  0x36ee
    3858:	5f 3f       	cpi	r21, 0xFF	; 255
    385a:	e4 f3       	brlt	.-8      	;  0x3854
    385c:	98 3e       	cpi	r25, 0xE8	; 232
    385e:	d4 f3       	brlt	.-12     	;  0x3854
    3860:	86 95       	lsr	r24
    3862:	77 95       	ror	r23
    3864:	67 95       	ror	r22
    3866:	b7 95       	ror	r27
    3868:	f7 95       	ror	r31
    386a:	e7 95       	ror	r30
    386c:	9f 5f       	subi	r25, 0xFF	; 255
    386e:	c1 f7       	brne	.-16     	;  0x3860
    3870:	fe 2b       	or	r31, r30
    3872:	88 0f       	add	r24, r24
    3874:	91 1d       	adc	r25, r1
    3876:	96 95       	lsr	r25
    3878:	87 95       	ror	r24
    387a:	97 f9       	bld	r25, 7
    387c:	08 95       	ret
    387e:	0e 94 08 1b 	call	0x3610	;  0x3610
    3882:	88 0b       	sbc	r24, r24
    3884:	99 0b       	sbc	r25, r25
    3886:	08 95       	ret
    3888:	9f 3f       	cpi	r25, 0xFF	; 255
    388a:	31 f0       	breq	.+12     	;  0x3898
    388c:	91 50       	subi	r25, 0x01	; 1
    388e:	20 f4       	brcc	.+8      	;  0x3898
    3890:	87 95       	ror	r24
    3892:	77 95       	ror	r23
    3894:	67 95       	ror	r22
    3896:	b7 95       	ror	r27
    3898:	88 0f       	add	r24, r24
    389a:	91 1d       	adc	r25, r1
    389c:	96 95       	lsr	r25
    389e:	87 95       	ror	r24
    38a0:	97 f9       	bld	r25, 7
    38a2:	08 95       	ret
    38a4:	df 93       	push	r29
    38a6:	cf 93       	push	r28
    38a8:	1f 93       	push	r17
    38aa:	0f 93       	push	r16
    38ac:	ff 92       	push	r15
    38ae:	ef 92       	push	r14
    38b0:	df 92       	push	r13
    38b2:	7b 01       	movw	r14, r22
    38b4:	8c 01       	movw	r16, r24
    38b6:	68 94       	set
    38b8:	06 c0       	rjmp	.+12     	;  0x38c6
    38ba:	da 2e       	mov	r13, r26
    38bc:	ef 01       	movw	r28, r30
    38be:	0e 94 e5 1b 	call	0x37ca	;  0x37ca
    38c2:	fe 01       	movw	r30, r28
    38c4:	e8 94       	clt
    38c6:	a5 91       	lpm	r26, Z+
    38c8:	25 91       	lpm	r18, Z+
    38ca:	35 91       	lpm	r19, Z+
    38cc:	45 91       	lpm	r20, Z+
    38ce:	55 91       	lpm	r21, Z+
    38d0:	a6 f3       	brts	.-24     	;  0x38ba
    38d2:	ef 01       	movw	r28, r30
    38d4:	0e 94 c9 19 	call	0x3392	;  0x3392
    38d8:	fe 01       	movw	r30, r28
    38da:	97 01       	movw	r18, r14
    38dc:	a8 01       	movw	r20, r16
    38de:	da 94       	dec	r13
    38e0:	69 f7       	brne	.-38     	;  0x38bc
    38e2:	df 90       	pop	r13
    38e4:	ef 90       	pop	r14
    38e6:	ff 90       	pop	r15
    38e8:	0f 91       	pop	r16
    38ea:	1f 91       	pop	r17
    38ec:	cf 91       	pop	r28
    38ee:	df 91       	pop	r29
    38f0:	08 95       	ret
    38f2:	cf 93       	push	r28
    38f4:	df 93       	push	r29
    38f6:	82 30       	cpi	r24, 0x02	; 2
    38f8:	91 05       	cpc	r25, r1
    38fa:	10 f4       	brcc	.+4      	;  0x3900
    38fc:	82 e0       	ldi	r24, 0x02	; 2
    38fe:	90 e0       	ldi	r25, 0x00	; 0
    3900:	e0 91 c2 05 	lds	r30, 0x05C2	;  0x8005c2
    3904:	f0 91 c3 05 	lds	r31, 0x05C3	;  0x8005c3
    3908:	20 e0       	ldi	r18, 0x00	; 0
    390a:	30 e0       	ldi	r19, 0x00	; 0
    390c:	c0 e0       	ldi	r28, 0x00	; 0
    390e:	d0 e0       	ldi	r29, 0x00	; 0
    3910:	30 97       	sbiw	r30, 0x00	; 0
    3912:	11 f1       	breq	.+68     	;  0x3958
    3914:	40 81       	ld	r20, Z
    3916:	51 81       	ldd	r21, Z+1	; 0x01
    3918:	48 17       	cp	r20, r24
    391a:	59 07       	cpc	r21, r25
    391c:	c0 f0       	brcs	.+48     	;  0x394e
    391e:	48 17       	cp	r20, r24
    3920:	59 07       	cpc	r21, r25
    3922:	61 f4       	brne	.+24     	;  0x393c
    3924:	82 81       	ldd	r24, Z+2	; 0x02
    3926:	93 81       	ldd	r25, Z+3	; 0x03
    3928:	20 97       	sbiw	r28, 0x00	; 0
    392a:	19 f0       	breq	.+6      	;  0x3932
    392c:	9b 83       	std	Y+3, r25	; 0x03
    392e:	8a 83       	std	Y+2, r24	; 0x02
    3930:	2b c0       	rjmp	.+86     	;  0x3988
    3932:	90 93 c3 05 	sts	0x05C3, r25	;  0x8005c3
    3936:	80 93 c2 05 	sts	0x05C2, r24	;  0x8005c2
    393a:	26 c0       	rjmp	.+76     	;  0x3988
    393c:	21 15       	cp	r18, r1
    393e:	31 05       	cpc	r19, r1
    3940:	19 f0       	breq	.+6      	;  0x3948
    3942:	42 17       	cp	r20, r18
    3944:	53 07       	cpc	r21, r19
    3946:	18 f4       	brcc	.+6      	;  0x394e
    3948:	9a 01       	movw	r18, r20
    394a:	be 01       	movw	r22, r28
    394c:	df 01       	movw	r26, r30
    394e:	ef 01       	movw	r28, r30
    3950:	02 80       	ldd	r0, Z+2	; 0x02
    3952:	f3 81       	ldd	r31, Z+3	; 0x03
    3954:	e0 2d       	mov	r30, r0
    3956:	dc cf       	rjmp	.-72     	;  0x3910
    3958:	21 15       	cp	r18, r1
    395a:	31 05       	cpc	r19, r1
    395c:	09 f1       	breq	.+66     	;  0x39a0
    395e:	28 1b       	sub	r18, r24
    3960:	39 0b       	sbc	r19, r25
    3962:	24 30       	cpi	r18, 0x04	; 4
    3964:	31 05       	cpc	r19, r1
    3966:	90 f4       	brcc	.+36     	;  0x398c
    3968:	12 96       	adiw	r26, 0x02	; 2
    396a:	8d 91       	ld	r24, X+
    396c:	9c 91       	ld	r25, X
    396e:	13 97       	sbiw	r26, 0x03	; 3
    3970:	61 15       	cp	r22, r1
    3972:	71 05       	cpc	r23, r1
    3974:	21 f0       	breq	.+8      	;  0x397e
    3976:	fb 01       	movw	r30, r22
    3978:	93 83       	std	Z+3, r25	; 0x03
    397a:	82 83       	std	Z+2, r24	; 0x02
    397c:	04 c0       	rjmp	.+8      	;  0x3986
    397e:	90 93 c3 05 	sts	0x05C3, r25	;  0x8005c3
    3982:	80 93 c2 05 	sts	0x05C2, r24	;  0x8005c2
    3986:	fd 01       	movw	r30, r26
    3988:	32 96       	adiw	r30, 0x02	; 2
    398a:	44 c0       	rjmp	.+136    	;  0x3a14
    398c:	fd 01       	movw	r30, r26
    398e:	e2 0f       	add	r30, r18
    3990:	f3 1f       	adc	r31, r19
    3992:	81 93       	st	Z+, r24
    3994:	91 93       	st	Z+, r25
    3996:	22 50       	subi	r18, 0x02	; 2
    3998:	31 09       	sbc	r19, r1
    399a:	2d 93       	st	X+, r18
    399c:	3c 93       	st	X, r19
    399e:	3a c0       	rjmp	.+116    	;  0x3a14
    39a0:	20 91 c0 05 	lds	r18, 0x05C0	;  0x8005c0
    39a4:	30 91 c1 05 	lds	r19, 0x05C1	;  0x8005c1
    39a8:	23 2b       	or	r18, r19
    39aa:	41 f4       	brne	.+16     	;  0x39bc
    39ac:	20 91 0f 01 	lds	r18, 0x010F	;  0x80010f
    39b0:	30 91 10 01 	lds	r19, 0x0110	;  0x800110
    39b4:	30 93 c1 05 	sts	0x05C1, r19	;  0x8005c1
    39b8:	20 93 c0 05 	sts	0x05C0, r18	;  0x8005c0
    39bc:	20 91 0d 01 	lds	r18, 0x010D	;  0x80010d
    39c0:	30 91 0e 01 	lds	r19, 0x010E	;  0x80010e
    39c4:	21 15       	cp	r18, r1
    39c6:	31 05       	cpc	r19, r1
    39c8:	41 f4       	brne	.+16     	;  0x39da
    39ca:	2d b7       	in	r18, 0x3d	; 61
    39cc:	3e b7       	in	r19, 0x3e	; 62
    39ce:	40 91 11 01 	lds	r20, 0x0111	;  0x800111
    39d2:	50 91 12 01 	lds	r21, 0x0112	;  0x800112
    39d6:	24 1b       	sub	r18, r20
    39d8:	35 0b       	sbc	r19, r21
    39da:	e0 91 c0 05 	lds	r30, 0x05C0	;  0x8005c0
    39de:	f0 91 c1 05 	lds	r31, 0x05C1	;  0x8005c1
    39e2:	e2 17       	cp	r30, r18
    39e4:	f3 07       	cpc	r31, r19
    39e6:	a0 f4       	brcc	.+40     	;  0x3a10
    39e8:	2e 1b       	sub	r18, r30
    39ea:	3f 0b       	sbc	r19, r31
    39ec:	28 17       	cp	r18, r24
    39ee:	39 07       	cpc	r19, r25
    39f0:	78 f0       	brcs	.+30     	;  0x3a10
    39f2:	ac 01       	movw	r20, r24
    39f4:	4e 5f       	subi	r20, 0xFE	; 254
    39f6:	5f 4f       	sbci	r21, 0xFF	; 255
    39f8:	24 17       	cp	r18, r20
    39fa:	35 07       	cpc	r19, r21
    39fc:	48 f0       	brcs	.+18     	;  0x3a10
    39fe:	4e 0f       	add	r20, r30
    3a00:	5f 1f       	adc	r21, r31
    3a02:	50 93 c1 05 	sts	0x05C1, r21	;  0x8005c1
    3a06:	40 93 c0 05 	sts	0x05C0, r20	;  0x8005c0
    3a0a:	81 93       	st	Z+, r24
    3a0c:	91 93       	st	Z+, r25
    3a0e:	02 c0       	rjmp	.+4      	;  0x3a14
    3a10:	e0 e0       	ldi	r30, 0x00	; 0
    3a12:	f0 e0       	ldi	r31, 0x00	; 0
    3a14:	cf 01       	movw	r24, r30
    3a16:	df 91       	pop	r29
    3a18:	cf 91       	pop	r28
    3a1a:	08 95       	ret
    3a1c:	0f 93       	push	r16
    3a1e:	1f 93       	push	r17
    3a20:	cf 93       	push	r28
    3a22:	df 93       	push	r29
    3a24:	00 97       	sbiw	r24, 0x00	; 0
    3a26:	09 f4       	brne	.+2      	;  0x3a2a
    3a28:	8c c0       	rjmp	.+280    	;  0x3b42
    3a2a:	fc 01       	movw	r30, r24
    3a2c:	32 97       	sbiw	r30, 0x02	; 2
    3a2e:	13 82       	std	Z+3, r1	; 0x03
    3a30:	12 82       	std	Z+2, r1	; 0x02
    3a32:	00 91 c2 05 	lds	r16, 0x05C2	;  0x8005c2
    3a36:	10 91 c3 05 	lds	r17, 0x05C3	;  0x8005c3
    3a3a:	01 15       	cp	r16, r1
    3a3c:	11 05       	cpc	r17, r1
    3a3e:	81 f4       	brne	.+32     	;  0x3a60
    3a40:	20 81       	ld	r18, Z
    3a42:	31 81       	ldd	r19, Z+1	; 0x01
    3a44:	82 0f       	add	r24, r18
    3a46:	93 1f       	adc	r25, r19
    3a48:	20 91 c0 05 	lds	r18, 0x05C0	;  0x8005c0
    3a4c:	30 91 c1 05 	lds	r19, 0x05C1	;  0x8005c1
    3a50:	28 17       	cp	r18, r24
    3a52:	39 07       	cpc	r19, r25
    3a54:	79 f5       	brne	.+94     	;  0x3ab4
    3a56:	f0 93 c1 05 	sts	0x05C1, r31	;  0x8005c1
    3a5a:	e0 93 c0 05 	sts	0x05C0, r30	;  0x8005c0
    3a5e:	71 c0       	rjmp	.+226    	;  0x3b42
    3a60:	d8 01       	movw	r26, r16
    3a62:	40 e0       	ldi	r20, 0x00	; 0
    3a64:	50 e0       	ldi	r21, 0x00	; 0
    3a66:	ae 17       	cp	r26, r30
    3a68:	bf 07       	cpc	r27, r31
    3a6a:	50 f4       	brcc	.+20     	;  0x3a80
    3a6c:	12 96       	adiw	r26, 0x02	; 2
    3a6e:	2d 91       	ld	r18, X+
    3a70:	3c 91       	ld	r19, X
    3a72:	13 97       	sbiw	r26, 0x03	; 3
    3a74:	ad 01       	movw	r20, r26
    3a76:	21 15       	cp	r18, r1
    3a78:	31 05       	cpc	r19, r1
    3a7a:	09 f1       	breq	.+66     	;  0x3abe
    3a7c:	d9 01       	movw	r26, r18
    3a7e:	f3 cf       	rjmp	.-26     	;  0x3a66
    3a80:	9d 01       	movw	r18, r26
    3a82:	da 01       	movw	r26, r20
    3a84:	33 83       	std	Z+3, r19	; 0x03
    3a86:	22 83       	std	Z+2, r18	; 0x02
    3a88:	60 81       	ld	r22, Z
    3a8a:	71 81       	ldd	r23, Z+1	; 0x01
    3a8c:	86 0f       	add	r24, r22
    3a8e:	97 1f       	adc	r25, r23
    3a90:	82 17       	cp	r24, r18
    3a92:	93 07       	cpc	r25, r19
    3a94:	69 f4       	brne	.+26     	;  0x3ab0
    3a96:	ec 01       	movw	r28, r24
    3a98:	28 81       	ld	r18, Y
    3a9a:	39 81       	ldd	r19, Y+1	; 0x01
    3a9c:	26 0f       	add	r18, r22
    3a9e:	37 1f       	adc	r19, r23
    3aa0:	2e 5f       	subi	r18, 0xFE	; 254
    3aa2:	3f 4f       	sbci	r19, 0xFF	; 255
    3aa4:	31 83       	std	Z+1, r19	; 0x01
    3aa6:	20 83       	st	Z, r18
    3aa8:	8a 81       	ldd	r24, Y+2	; 0x02
    3aaa:	9b 81       	ldd	r25, Y+3	; 0x03
    3aac:	93 83       	std	Z+3, r25	; 0x03
    3aae:	82 83       	std	Z+2, r24	; 0x02
    3ab0:	45 2b       	or	r20, r21
    3ab2:	29 f4       	brne	.+10     	;  0x3abe
    3ab4:	f0 93 c3 05 	sts	0x05C3, r31	;  0x8005c3
    3ab8:	e0 93 c2 05 	sts	0x05C2, r30	;  0x8005c2
    3abc:	42 c0       	rjmp	.+132    	;  0x3b42
    3abe:	13 96       	adiw	r26, 0x03	; 3
    3ac0:	fc 93       	st	X, r31
    3ac2:	ee 93       	st	-X, r30
    3ac4:	12 97       	sbiw	r26, 0x02	; 2
    3ac6:	ed 01       	movw	r28, r26
    3ac8:	49 91       	ld	r20, Y+
    3aca:	59 91       	ld	r21, Y+
    3acc:	9e 01       	movw	r18, r28
    3ace:	24 0f       	add	r18, r20
    3ad0:	35 1f       	adc	r19, r21
    3ad2:	e2 17       	cp	r30, r18
    3ad4:	f3 07       	cpc	r31, r19
    3ad6:	71 f4       	brne	.+28     	;  0x3af4
    3ad8:	80 81       	ld	r24, Z
    3ada:	91 81       	ldd	r25, Z+1	; 0x01
    3adc:	84 0f       	add	r24, r20
    3ade:	95 1f       	adc	r25, r21
    3ae0:	02 96       	adiw	r24, 0x02	; 2
    3ae2:	11 96       	adiw	r26, 0x01	; 1
    3ae4:	9c 93       	st	X, r25
    3ae6:	8e 93       	st	-X, r24
    3ae8:	82 81       	ldd	r24, Z+2	; 0x02
    3aea:	93 81       	ldd	r25, Z+3	; 0x03
    3aec:	13 96       	adiw	r26, 0x03	; 3
    3aee:	9c 93       	st	X, r25
    3af0:	8e 93       	st	-X, r24
    3af2:	12 97       	sbiw	r26, 0x02	; 2
    3af4:	e0 e0       	ldi	r30, 0x00	; 0
    3af6:	f0 e0       	ldi	r31, 0x00	; 0
    3af8:	d8 01       	movw	r26, r16
    3afa:	12 96       	adiw	r26, 0x02	; 2
    3afc:	8d 91       	ld	r24, X+
    3afe:	9c 91       	ld	r25, X
    3b00:	13 97       	sbiw	r26, 0x03	; 3
    3b02:	00 97       	sbiw	r24, 0x00	; 0
    3b04:	19 f0       	breq	.+6      	;  0x3b0c
    3b06:	f8 01       	movw	r30, r16
    3b08:	8c 01       	movw	r16, r24
    3b0a:	f6 cf       	rjmp	.-20     	;  0x3af8
    3b0c:	8d 91       	ld	r24, X+
    3b0e:	9c 91       	ld	r25, X
    3b10:	98 01       	movw	r18, r16
    3b12:	2e 5f       	subi	r18, 0xFE	; 254
    3b14:	3f 4f       	sbci	r19, 0xFF	; 255
    3b16:	82 0f       	add	r24, r18
    3b18:	93 1f       	adc	r25, r19
    3b1a:	20 91 c0 05 	lds	r18, 0x05C0	;  0x8005c0
    3b1e:	30 91 c1 05 	lds	r19, 0x05C1	;  0x8005c1
    3b22:	28 17       	cp	r18, r24
    3b24:	39 07       	cpc	r19, r25
    3b26:	69 f4       	brne	.+26     	;  0x3b42
    3b28:	30 97       	sbiw	r30, 0x00	; 0
    3b2a:	29 f4       	brne	.+10     	;  0x3b36
    3b2c:	10 92 c3 05 	sts	0x05C3, r1	;  0x8005c3
    3b30:	10 92 c2 05 	sts	0x05C2, r1	;  0x8005c2
    3b34:	02 c0       	rjmp	.+4      	;  0x3b3a
    3b36:	13 82       	std	Z+3, r1	; 0x03
    3b38:	12 82       	std	Z+2, r1	; 0x02
    3b3a:	10 93 c1 05 	sts	0x05C1, r17	;  0x8005c1
    3b3e:	00 93 c0 05 	sts	0x05C0, r16	;  0x8005c0
    3b42:	df 91       	pop	r29
    3b44:	cf 91       	pop	r28
    3b46:	1f 91       	pop	r17
    3b48:	0f 91       	pop	r16
    3b4a:	08 95       	ret
    3b4c:	81 e0       	ldi	r24, 0x01	; 1
    3b4e:	90 e0       	ldi	r25, 0x00	; 0
    3b50:	f8 94       	cli
    3b52:	0c 94 c1 1d 	jmp	0x3b82	;  0x3b82
    3b56:	dc 01       	movw	r26, r24
    3b58:	01 c0       	rjmp	.+2      	;  0x3b5c
    3b5a:	6d 93       	st	X+, r22
    3b5c:	41 50       	subi	r20, 0x01	; 1
    3b5e:	50 40       	sbci	r21, 0x00	; 0
    3b60:	e0 f7       	brcc	.-8      	;  0x3b5a
    3b62:	08 95       	ret
    3b64:	fb 01       	movw	r30, r22
    3b66:	dc 01       	movw	r26, r24
    3b68:	41 50       	subi	r20, 0x01	; 1
    3b6a:	50 40       	sbci	r21, 0x00	; 0
    3b6c:	48 f0       	brcs	.+18     	;  0x3b80
    3b6e:	01 90       	ld	r0, Z+
    3b70:	0d 92       	st	X+, r0
    3b72:	00 20       	and	r0, r0
    3b74:	c9 f7       	brne	.-14     	;  0x3b68
    3b76:	01 c0       	rjmp	.+2      	;  0x3b7a
    3b78:	1d 92       	st	X+, r1
    3b7a:	41 50       	subi	r20, 0x01	; 1
    3b7c:	50 40       	sbci	r21, 0x00	; 0
    3b7e:	e0 f7       	brcc	.-8      	;  0x3b78
    3b80:	08 95       	ret
    3b82:	11 e0       	ldi	r17, 0x01	; 1
    3b84:	c0 e2       	ldi	r28, 0x20	; 32
    3b86:	d1 e0       	ldi	r29, 0x01	; 1
    3b88:	04 c0       	rjmp	.+8      	;  0x3b92
    3b8a:	fe 01       	movw	r30, r28
    3b8c:	0e 94 9c 19 	call	0x3338	;  0x3338
    3b90:	21 96       	adiw	r28, 0x01	; 1
    3b92:	c1 32       	cpi	r28, 0x21	; 33
    3b94:	d1 07       	cpc	r29, r17
    3b96:	c9 f7       	brne	.-14     	;  0x3b8a
    3b98:	f8 94       	cli
    3b9a:	ff cf       	rjmp	.-2      	;  0x3b9a
    3b9c:	ff ff       	.word	0xffff	; ????
    3b9e:	ff ff       	.word	0xffff	; ????
    3ba0:	ff 00       	.word	0x00ff	; ????
    3ba2:	e1 00       	.word	0x00e1	; ????
    3ba4:	00 00       	nop
    3ba6:	00 00       	nop
    3ba8:	00 00       	nop
    3baa:	00 c4       	rjmp	.+2048   	;  0x43ac
    3bac:	05 80       	ldd	r0, Z+5	; 0x05
    3bae:	00 00       	nop
    3bb0:	c1 80       	ldd	r12, Z+1	; 0x01
    3bb2:	81 00       	.word	0x0081	; ????
    3bb4:	00 00       	nop
    3bb6:	00 00       	nop
    3bb8:	00 00       	nop
    3bba:	20 0d       	add	r18, r0
    3bbc:	8d 0d       	add	r24, r13
    3bbe:	41 0d       	add	r20, r1
    3bc0:	18 0e       	add	r1, r24
    3bc2:	36 0e       	add	r3, r22
    3bc4:	36 0d       	add	r19, r6
    3bc6:	00 00       	nop
    3bc8:	00 00       	nop
    3bca:	c0 01       	movw	r24, r0
    3bcc:	83 01       	movw	r16, r6
    3bce:	7b 01       	movw	r14, r22
    3bd0:	67 01       	movw	r12, r14
    3bd2:	58 01       	movw	r10, r16
    3bd4:	57 01       	movw	r10, r14
    3bd6:	00 00       	nop
    3bd8:	00 00       	nop
    3bda:	4e 07       	cpc	r20, r30
    3bdc:	ea 01       	movw	r28, r20
    3bde:	e9 01       	movw	r28, r18
    3be0:	ef 05       	cpc	r30, r15
    3be2:	ec 01       	movw	r28, r24
	...
    3bec:	e9 01       	movw	r28, r18
    3bee:	4b 01       	movw	r8, r22
    3bf0:	4b 01       	movw	r8, r22
    3bf2:	43 69       	ori	r20, 0x93	; 147
    3bf4:	72 63       	ori	r23, 0x32	; 50
    3bf6:	75 69       	ori	r23, 0x95	; 149
    3bf8:	74 20       	and	r7, r4
    3bfa:	50 6c       	ori	r21, 0xC0	; 192
    3bfc:	61 79       	andi	r22, 0x91	; 145
    3bfe:	67 72       	andi	r22, 0x27	; 39
    3c00:	6f 75       	andi	r22, 0x5F	; 95
    3c02:	6e 64       	ori	r22, 0x4E	; 78
    3c04:	20 74       	andi	r18, 0x40	; 64
    3c06:	65 73       	andi	r22, 0x35	; 53
    3c08:	74 21       	and	r23, r4
    3c0a:	00 43       	sbci	r16, 0x30	; 48
    3c0c:	61 70       	andi	r22, 0x01	; 1
    3c0e:	73 65       	ori	r23, 0x53	; 83
    3c10:	6e 73       	andi	r22, 0x3E	; 62
    3c12:	65 20       	and	r6, r5
    3c14:	23 33       	cpi	r18, 0x33	; 51
    3c16:	3a 20       	and	r3, r10
    3c18:	00 43       	sbci	r16, 0x30	; 48
    3c1a:	61 70       	andi	r22, 0x01	; 1
    3c1c:	73 65       	ori	r23, 0x53	; 83
    3c1e:	6e 73       	andi	r22, 0x3E	; 62
    3c20:	65 20       	and	r6, r5
    3c22:	23 32       	cpi	r18, 0x23	; 35
    3c24:	3a 20       	and	r3, r10
    3c26:	00 43       	sbci	r16, 0x30	; 48
    3c28:	61 70       	andi	r22, 0x01	; 1
    3c2a:	73 65       	ori	r23, 0x53	; 83
    3c2c:	6e 73       	andi	r22, 0x3E	; 62
    3c2e:	65 20       	and	r6, r5
    3c30:	23 30       	cpi	r18, 0x03	; 3
    3c32:	3a 20       	and	r3, r10
    3c34:	00 43       	sbci	r16, 0x30	; 48
    3c36:	61 70       	andi	r22, 0x01	; 1
    3c38:	73 65       	ori	r23, 0x53	; 83
    3c3a:	6e 73       	andi	r22, 0x3E	; 62
    3c3c:	65 20       	and	r6, r5
    3c3e:	23 31       	cpi	r18, 0x13	; 19
    3c40:	3a 20       	and	r3, r10
    3c42:	00 43       	sbci	r16, 0x30	; 48
    3c44:	61 70       	andi	r22, 0x01	; 1
    3c46:	73 65       	ori	r23, 0x53	; 83
    3c48:	6e 73       	andi	r22, 0x3E	; 62
    3c4a:	65 20       	and	r6, r5
    3c4c:	23 31       	cpi	r18, 0x13	; 19
    3c4e:	32 3a       	cpi	r19, 0xA2	; 162
    3c50:	20 00       	.word	0x0020	; ????
    3c52:	43 61       	ori	r20, 0x13	; 19
    3c54:	70 73       	andi	r23, 0x30	; 48
    3c56:	65 6e       	ori	r22, 0xE5	; 229
    3c58:	73 65       	ori	r23, 0x53	; 83
    3c5a:	20 23       	and	r18, r16
    3c5c:	36 3a       	cpi	r19, 0xA6	; 166
    3c5e:	20 00       	.word	0x0020	; ????
    3c60:	43 61       	ori	r20, 0x13	; 19
    3c62:	70 73       	andi	r23, 0x30	; 48
    3c64:	65 6e       	ori	r22, 0xE5	; 229
    3c66:	73 65       	ori	r23, 0x53	; 83
    3c68:	20 23       	and	r18, r16
    3c6a:	39 3a       	cpi	r19, 0xA9	; 169
    3c6c:	20 00       	.word	0x0020	; ????
    3c6e:	43 61       	ori	r20, 0x13	; 19
    3c70:	70 73       	andi	r23, 0x30	; 48
    3c72:	65 6e       	ori	r22, 0xE5	; 229
    3c74:	73 65       	ori	r23, 0x53	; 83
    3c76:	20 23       	and	r18, r16
    3c78:	31 30       	cpi	r19, 0x01	; 1
    3c7a:	3a 20       	and	r3, r10
    3c7c:	00 53       	subi	r16, 0x30	; 48
    3c7e:	6c 69       	ori	r22, 0x9C	; 156
    3c80:	64 65       	ori	r22, 0x54	; 84
    3c82:	20 74       	andi	r18, 0x40	; 64
    3c84:	6f 20       	and	r6, r15
    3c86:	74 68       	ori	r23, 0x84	; 132
    3c88:	65 20       	and	r6, r5
    3c8a:	6c 65       	ori	r22, 0x5C	; 92
    3c8c:	66 74       	andi	r22, 0x46	; 70
    3c8e:	00 53       	subi	r16, 0x30	; 48
    3c90:	6c 69       	ori	r22, 0x9C	; 156
    3c92:	64 65       	ori	r22, 0x54	; 84
    3c94:	20 74       	andi	r18, 0x40	; 64
    3c96:	6f 20       	and	r6, r15
    3c98:	74 68       	ori	r23, 0x84	; 132
    3c9a:	65 20       	and	r6, r5
    3c9c:	72 69       	ori	r23, 0x92	; 146
    3c9e:	67 68       	ori	r22, 0x87	; 135
    3ca0:	74 00       	.word	0x0074	; ????
    3ca2:	4c 65       	ori	r20, 0x5C	; 92
    3ca4:	66 74       	andi	r22, 0x46	; 70
    3ca6:	20 62       	ori	r18, 0x20	; 32
    3ca8:	75 74       	andi	r23, 0x45	; 69
    3caa:	74 6f       	ori	r23, 0xF4	; 244
    3cac:	6e 20       	and	r6, r14
    3cae:	70 72       	andi	r23, 0x20	; 32
    3cb0:	65 73       	andi	r22, 0x35	; 53
    3cb2:	73 65       	ori	r23, 0x53	; 83
    3cb4:	64 21       	and	r22, r4
    3cb6:	00 52       	subi	r16, 0x20	; 32
    3cb8:	69 67       	ori	r22, 0x79	; 121
    3cba:	68 74       	andi	r22, 0x48	; 72
    3cbc:	20 62       	ori	r18, 0x20	; 32
    3cbe:	75 74       	andi	r23, 0x45	; 69
    3cc0:	74 6f       	ori	r23, 0xF4	; 244
    3cc2:	6e 20       	and	r6, r14
    3cc4:	70 72       	andi	r23, 0x20	; 32
    3cc6:	65 73       	andi	r22, 0x35	; 53
    3cc8:	73 65       	ori	r23, 0x53	; 83
    3cca:	64 21       	and	r22, r4
    3ccc:	00 4c       	sbci	r16, 0xC0	; 192
    3cce:	69 67       	ori	r22, 0x79	; 121
    3cd0:	68 74       	andi	r22, 0x48	; 72
    3cd2:	20 73       	andi	r18, 0x30	; 48
    3cd4:	65 6e       	ori	r22, 0xE5	; 229
    3cd6:	73 6f       	ori	r23, 0xF3	; 243
    3cd8:	72 3a       	cpi	r23, 0xA2	; 162
    3cda:	20 00       	.word	0x0020	; ????
    3cdc:	53 6f       	ori	r21, 0xF3	; 243
    3cde:	75 6e       	ori	r23, 0xE5	; 229
    3ce0:	64 20       	and	r6, r4
    3ce2:	73 65       	ori	r23, 0x53	; 83
    3ce4:	6e 73       	andi	r22, 0x3E	; 62
    3ce6:	6f 72       	andi	r22, 0x2F	; 47
    3ce8:	3a 20       	and	r3, r10
    3cea:	00 58       	subi	r16, 0x80	; 128
    3cec:	3a 20       	and	r3, r10
    3cee:	00 20       	and	r0, r0
    3cf0:	09 59       	subi	r16, 0x99	; 153
    3cf2:	3a 20       	and	r3, r10
    3cf4:	00 20       	and	r0, r0
    3cf6:	09 5a       	subi	r16, 0xA9	; 169
    3cf8:	3a 20       	and	r3, r10
    3cfa:	00 20       	and	r0, r0
    3cfc:	6d 2f       	mov	r22, r29
    3cfe:	73 5e       	subi	r23, 0xE3	; 227
    3d00:	32 00       	.word	0x0032	; ????
    3d02:	54 65       	ori	r21, 0x54	; 84
    3d04:	6d 70       	andi	r22, 0x0D	; 13
    3d06:	65 72       	andi	r22, 0x25	; 37
    3d08:	61 74       	andi	r22, 0x41	; 65
    3d0a:	75 72       	andi	r23, 0x25	; 37
    3d0c:	65 20       	and	r6, r5
    3d0e:	00 20       	and	r0, r0
    3d10:	2a 43       	sbci	r18, 0x3A	; 58
    3d12:	00 4c       	sbci	r16, 0xC0	; 192
    3d14:	49 53       	subi	r20, 0x39	; 57
    3d16:	33 44       	sbci	r19, 0x43	; 67
    3d18:	48 00       	.word	0x0048	; ????
    3d1a:	0d 0a       	sbc	r0, r29
    3d1c:	00 6e       	ori	r16, 0xE0	; 224
    3d1e:	61 6e       	ori	r22, 0xE1	; 225
    3d20:	00 69       	ori	r16, 0x90	; 144
    3d22:	6e 66       	ori	r22, 0x6E	; 110
    3d24:	00 6f       	ori	r16, 0xF0	; 240
    3d26:	76 66       	ori	r23, 0x66	; 102
    3d28:	00 2e       	mov	r0, r16
    
